
AVRASM ver. 2.1.30  D:\MAHFUDZ\Box Sync\Personal\ROBOT\Program\Riset LF\Baru 2017 Sensor 14\List\a.asm Thu Nov 09 11:59:08 2017

D:\MAHFUDZ\Box Sync\Personal\ROBOT\Program\Riset LF\Baru 2017 Sensor 14\List\a.asm(1059): warning: Register r4 already defined by the .DEF directive
D:\MAHFUDZ\Box Sync\Personal\ROBOT\Program\Riset LF\Baru 2017 Sensor 14\List\a.asm(1060): warning: Register r6 already defined by the .DEF directive
D:\MAHFUDZ\Box Sync\Personal\ROBOT\Program\Riset LF\Baru 2017 Sensor 14\List\a.asm(1061): warning: Register r8 already defined by the .DEF directive
D:\MAHFUDZ\Box Sync\Personal\ROBOT\Program\Riset LF\Baru 2017 Sensor 14\List\a.asm(1062): warning: Register r10 already defined by the .DEF directive
D:\MAHFUDZ\Box Sync\Personal\ROBOT\Program\Riset LF\Baru 2017 Sensor 14\List\a.asm(1063): warning: Register r12 already defined by the .DEF directive
                 
                 
                 ;CodeVisionAVR C Compiler V2.05.0 Professional
                 ;(C) Copyright 1998-2010 Pavel Haiduc, HP InfoTech s.r.l.
                 ;http://www.hpinfotech.com
                 
                 ;Chip type                : ATmega32
                 ;Program type             : Application
                 ;Clock frequency          : 16,000000 MHz
                 ;Memory model             : Small
                 ;Optimize for             : Size
                 ;(s)printf features       : int, width
                 ;(s)scanf features        : int, width
                 ;External RAM size        : 0
                 ;Data Stack size          : 512 byte(s)
                 ;Heap size                : 0 byte(s)
                 ;Promote 'char' to 'int'  : Yes
                 ;'char' is unsigned       : Yes
                 ;8 bit enums              : Yes
                 ;global 'const' stored in FLASH: No
                 ;Enhanced core instructions    : On
                 ;Smart register allocation     : On
                 ;Automatic register allocation : On
                 
                 	#pragma AVRPART ADMIN PART_NAME ATmega32
                 	#pragma AVRPART MEMORY PROG_FLASH 32768
                 	#pragma AVRPART MEMORY EEPROM 1024
                 	#pragma AVRPART MEMORY INT_SRAM SIZE 2143
                 	#pragma AVRPART MEMORY INT_SRAM START_ADDR 0x60
                 
                 	#define CALL_SUPPORTED 1
                 
                 	.LISTMAC
                 	.EQU UDRE=0x5
                 	.EQU RXC=0x7
                 	.EQU USR=0xB
                 	.EQU UDR=0xC
                 	.EQU SPSR=0xE
                 	.EQU SPDR=0xF
                 	.EQU EERE=0x0
                 	.EQU EEWE=0x1
                 	.EQU EEMWE=0x2
                 	.EQU EECR=0x1C
                 	.EQU EEDR=0x1D
                 	.EQU EEARL=0x1E
                 	.EQU EEARH=0x1F
                 	.EQU WDTCR=0x21
                 	.EQU MCUCR=0x35
                 	.EQU GICR=0x3B
                 	.EQU SPL=0x3D
                 	.EQU SPH=0x3E
                 	.EQU SREG=0x3F
                 
                 	.DEF R0X0=R0
                 	.DEF R0X1=R1
                 	.DEF R0X2=R2
                 	.DEF R0X3=R3
                 	.DEF R0X4=R4
                 	.DEF R0X5=R5
                 	.DEF R0X6=R6
                 	.DEF R0X7=R7
                 	.DEF R0X8=R8
                 	.DEF R0X9=R9
                 	.DEF R0XA=R10
                 	.DEF R0XB=R11
                 	.DEF R0XC=R12
                 	.DEF R0XD=R13
                 	.DEF R0XE=R14
                 	.DEF R0XF=R15
                 	.DEF R0X10=R16
                 	.DEF R0X11=R17
                 	.DEF R0X12=R18
                 	.DEF R0X13=R19
                 	.DEF R0X14=R20
                 	.DEF R0X15=R21
                 	.DEF R0X16=R22
                 	.DEF R0X17=R23
                 	.DEF R0X18=R24
                 	.DEF R0X19=R25
                 	.DEF R0X1A=R26
                 	.DEF R0X1B=R27
                 	.DEF R0X1C=R28
                 	.DEF R0X1D=R29
                 	.DEF R0X1E=R30
                 	.DEF R0X1F=R31
                 
                 	.EQU __SRAM_START=0x0060
                 	.EQU __SRAM_END=0x085F
                 	.EQU __DSTACK_SIZE=0x0200
                 	.EQU __HEAP_SIZE=0x0000
                 	.EQU __CLEAR_SRAM_SIZE=__SRAM_END-__SRAM_START+1
                 
                 	.MACRO __CPD1N
                 	CPI  R30,LOW(@0)
                 	LDI  R26,HIGH(@0)
                 	CPC  R31,R26
                 	LDI  R26,BYTE3(@0)
                 	CPC  R22,R26
                 	LDI  R26,BYTE4(@0)
                 	CPC  R23,R26
                 	.ENDM
                 
                 	.MACRO __CPD2N
                 	CPI  R26,LOW(@0)
                 	LDI  R30,HIGH(@0)
                 	CPC  R27,R30
                 	LDI  R30,BYTE3(@0)
                 	CPC  R24,R30
                 	LDI  R30,BYTE4(@0)
                 	CPC  R25,R30
                 	.ENDM
                 
                 	.MACRO __CPWRR
                 	CP   R@0,R@2
                 	CPC  R@1,R@3
                 	.ENDM
                 
                 	.MACRO __CPWRN
                 	CPI  R@0,LOW(@2)
                 	LDI  R30,HIGH(@2)
                 	CPC  R@1,R30
                 	.ENDM
                 
                 	.MACRO __ADDB1MN
                 	SUBI R30,LOW(-@0-(@1))
                 	.ENDM
                 
                 	.MACRO __ADDB2MN
                 	SUBI R26,LOW(-@0-(@1))
                 	.ENDM
                 
                 	.MACRO __ADDW1MN
                 	SUBI R30,LOW(-@0-(@1))
                 	SBCI R31,HIGH(-@0-(@1))
                 	.ENDM
                 
                 	.MACRO __ADDW2MN
                 	SUBI R26,LOW(-@0-(@1))
                 	SBCI R27,HIGH(-@0-(@1))
                 	.ENDM
                 
                 	.MACRO __ADDW1FN
                 	SUBI R30,LOW(-2*@0-(@1))
                 	SBCI R31,HIGH(-2*@0-(@1))
                 	.ENDM
                 
                 	.MACRO __ADDD1FN
                 	SUBI R30,LOW(-2*@0-(@1))
                 	SBCI R31,HIGH(-2*@0-(@1))
                 	SBCI R22,BYTE3(-2*@0-(@1))
                 	.ENDM
                 
                 	.MACRO __ADDD1N
                 	SUBI R30,LOW(-@0)
                 	SBCI R31,HIGH(-@0)
                 	SBCI R22,BYTE3(-@0)
                 	SBCI R23,BYTE4(-@0)
                 	.ENDM
                 
                 	.MACRO __ADDD2N
                 	SUBI R26,LOW(-@0)
                 	SBCI R27,HIGH(-@0)
                 	SBCI R24,BYTE3(-@0)
                 	SBCI R25,BYTE4(-@0)
                 	.ENDM
                 
                 	.MACRO __SUBD1N
                 	SUBI R30,LOW(@0)
                 	SBCI R31,HIGH(@0)
                 	SBCI R22,BYTE3(@0)
                 	SBCI R23,BYTE4(@0)
                 	.ENDM
                 
                 	.MACRO __SUBD2N
                 	SUBI R26,LOW(@0)
                 	SBCI R27,HIGH(@0)
                 	SBCI R24,BYTE3(@0)
                 	SBCI R25,BYTE4(@0)
                 	.ENDM
                 
                 	.MACRO __ANDBMNN
                 	LDS  R30,@0+(@1)
                 	ANDI R30,LOW(@2)
                 	STS  @0+(@1),R30
                 	.ENDM
                 
                 	.MACRO __ANDWMNN
                 	LDS  R30,@0+(@1)
                 	ANDI R30,LOW(@2)
                 	STS  @0+(@1),R30
                 	LDS  R30,@0+(@1)+1
                 	ANDI R30,HIGH(@2)
                 	STS  @0+(@1)+1,R30
                 	.ENDM
                 
                 	.MACRO __ANDD1N
                 	ANDI R30,LOW(@0)
                 	ANDI R31,HIGH(@0)
                 	ANDI R22,BYTE3(@0)
                 	ANDI R23,BYTE4(@0)
                 	.ENDM
                 
                 	.MACRO __ANDD2N
                 	ANDI R26,LOW(@0)
                 	ANDI R27,HIGH(@0)
                 	ANDI R24,BYTE3(@0)
                 	ANDI R25,BYTE4(@0)
                 	.ENDM
                 
                 	.MACRO __ORBMNN
                 	LDS  R30,@0+(@1)
                 	ORI  R30,LOW(@2)
                 	STS  @0+(@1),R30
                 	.ENDM
                 
                 	.MACRO __ORWMNN
                 	LDS  R30,@0+(@1)
                 	ORI  R30,LOW(@2)
                 	STS  @0+(@1),R30
                 	LDS  R30,@0+(@1)+1
                 	ORI  R30,HIGH(@2)
                 	STS  @0+(@1)+1,R30
                 	.ENDM
                 
                 	.MACRO __ORD1N
                 	ORI  R30,LOW(@0)
                 	ORI  R31,HIGH(@0)
                 	ORI  R22,BYTE3(@0)
                 	ORI  R23,BYTE4(@0)
                 	.ENDM
                 
                 	.MACRO __ORD2N
                 	ORI  R26,LOW(@0)
                 	ORI  R27,HIGH(@0)
                 	ORI  R24,BYTE3(@0)
                 	ORI  R25,BYTE4(@0)
                 	.ENDM
                 
                 	.MACRO __DELAY_USB
                 	LDI  R24,LOW(@0)
                 __DELAY_USB_LOOP:
                 	DEC  R24
                 	BRNE __DELAY_USB_LOOP
                 	.ENDM
                 
                 	.MACRO __DELAY_USW
                 	LDI  R24,LOW(@0)
                 	LDI  R25,HIGH(@0)
                 __DELAY_USW_LOOP:
                 	SBIW R24,1
                 	BRNE __DELAY_USW_LOOP
                 	.ENDM
                 
                 	.MACRO __GETD1S
                 	LDD  R30,Y+@0
                 	LDD  R31,Y+@0+1
                 	LDD  R22,Y+@0+2
                 	LDD  R23,Y+@0+3
                 	.ENDM
                 
                 	.MACRO __GETD2S
                 	LDD  R26,Y+@0
                 	LDD  R27,Y+@0+1
                 	LDD  R24,Y+@0+2
                 	LDD  R25,Y+@0+3
                 	.ENDM
                 
                 	.MACRO __PUTD1S
                 	STD  Y+@0,R30
                 	STD  Y+@0+1,R31
                 	STD  Y+@0+2,R22
                 	STD  Y+@0+3,R23
                 	.ENDM
                 
                 	.MACRO __PUTD2S
                 	STD  Y+@0,R26
                 	STD  Y+@0+1,R27
                 	STD  Y+@0+2,R24
                 	STD  Y+@0+3,R25
                 	.ENDM
                 
                 	.MACRO __PUTDZ2
                 	STD  Z+@0,R26
                 	STD  Z+@0+1,R27
                 	STD  Z+@0+2,R24
                 	STD  Z+@0+3,R25
                 	.ENDM
                 
                 	.MACRO __CLRD1S
                 	STD  Y+@0,R30
                 	STD  Y+@0+1,R30
                 	STD  Y+@0+2,R30
                 	STD  Y+@0+3,R30
                 	.ENDM
                 
                 	.MACRO __POINTB1MN
                 	LDI  R30,LOW(@0+(@1))
                 	.ENDM
                 
                 	.MACRO __POINTW1MN
                 	LDI  R30,LOW(@0+(@1))
                 	LDI  R31,HIGH(@0+(@1))
                 	.ENDM
                 
                 	.MACRO __POINTD1M
                 	LDI  R30,LOW(@0)
                 	LDI  R31,HIGH(@0)
                 	LDI  R22,BYTE3(@0)
                 	LDI  R23,BYTE4(@0)
                 	.ENDM
                 
                 	.MACRO __POINTW1FN
                 	LDI  R30,LOW(2*@0+(@1))
                 	LDI  R31,HIGH(2*@0+(@1))
                 	.ENDM
                 
                 	.MACRO __POINTD1FN
                 	LDI  R30,LOW(2*@0+(@1))
                 	LDI  R31,HIGH(2*@0+(@1))
                 	LDI  R22,BYTE3(2*@0+(@1))
                 	LDI  R23,BYTE4(2*@0+(@1))
                 	.ENDM
                 
                 	.MACRO __POINTB2MN
                 	LDI  R26,LOW(@0+(@1))
                 	.ENDM
                 
                 	.MACRO __POINTW2MN
                 	LDI  R26,LOW(@0+(@1))
                 	LDI  R27,HIGH(@0+(@1))
                 	.ENDM
                 
                 	.MACRO __POINTBRM
                 	LDI  R@0,LOW(@1)
                 	.ENDM
                 
                 	.MACRO __POINTWRM
                 	LDI  R@0,LOW(@2)
                 	LDI  R@1,HIGH(@2)
                 	.ENDM
                 
                 	.MACRO __POINTBRMN
                 	LDI  R@0,LOW(@1+(@2))
                 	.ENDM
                 
                 	.MACRO __POINTWRMN
                 	LDI  R@0,LOW(@2+(@3))
                 	LDI  R@1,HIGH(@2+(@3))
                 	.ENDM
                 
                 	.MACRO __POINTWRFN
                 	LDI  R@0,LOW(@2*2+(@3))
                 	LDI  R@1,HIGH(@2*2+(@3))
                 	.ENDM
                 
                 	.MACRO __GETD1N
                 	LDI  R30,LOW(@0)
                 	LDI  R31,HIGH(@0)
                 	LDI  R22,BYTE3(@0)
                 	LDI  R23,BYTE4(@0)
                 	.ENDM
                 
                 	.MACRO __GETD2N
                 	LDI  R26,LOW(@0)
                 	LDI  R27,HIGH(@0)
                 	LDI  R24,BYTE3(@0)
                 	LDI  R25,BYTE4(@0)
                 	.ENDM
                 
                 	.MACRO __GETB1MN
                 	LDS  R30,@0+(@1)
                 	.ENDM
                 
                 	.MACRO __GETB1HMN
                 	LDS  R31,@0+(@1)
                 	.ENDM
                 
                 	.MACRO __GETW1MN
                 	LDS  R30,@0+(@1)
                 	LDS  R31,@0+(@1)+1
                 	.ENDM
                 
                 	.MACRO __GETD1MN
                 	LDS  R30,@0+(@1)
                 	LDS  R31,@0+(@1)+1
                 	LDS  R22,@0+(@1)+2
                 	LDS  R23,@0+(@1)+3
                 	.ENDM
                 
                 	.MACRO __GETBRMN
                 	LDS  R@0,@1+(@2)
                 	.ENDM
                 
                 	.MACRO __GETWRMN
                 	LDS  R@0,@2+(@3)
                 	LDS  R@1,@2+(@3)+1
                 	.ENDM
                 
                 	.MACRO __GETWRZ
                 	LDD  R@0,Z+@2
                 	LDD  R@1,Z+@2+1
                 	.ENDM
                 
                 	.MACRO __GETD2Z
                 	LDD  R26,Z+@0
                 	LDD  R27,Z+@0+1
                 	LDD  R24,Z+@0+2
                 	LDD  R25,Z+@0+3
                 	.ENDM
                 
                 	.MACRO __GETB2MN
                 	LDS  R26,@0+(@1)
                 	.ENDM
                 
                 	.MACRO __GETW2MN
                 	LDS  R26,@0+(@1)
                 	LDS  R27,@0+(@1)+1
                 	.ENDM
                 
                 	.MACRO __GETD2MN
                 	LDS  R26,@0+(@1)
                 	LDS  R27,@0+(@1)+1
                 	LDS  R24,@0+(@1)+2
                 	LDS  R25,@0+(@1)+3
                 	.ENDM
                 
                 	.MACRO __PUTB1MN
                 	STS  @0+(@1),R30
                 	.ENDM
                 
                 	.MACRO __PUTW1MN
                 	STS  @0+(@1),R30
                 	STS  @0+(@1)+1,R31
                 	.ENDM
                 
                 	.MACRO __PUTD1MN
                 	STS  @0+(@1),R30
                 	STS  @0+(@1)+1,R31
                 	STS  @0+(@1)+2,R22
                 	STS  @0+(@1)+3,R23
                 	.ENDM
                 
                 	.MACRO __PUTB1EN
                 	LDI  R26,LOW(@0+(@1))
                 	LDI  R27,HIGH(@0+(@1))
                 	CALL __EEPROMWRB
                 	.ENDM
                 
                 	.MACRO __PUTW1EN
                 	LDI  R26,LOW(@0+(@1))
                 	LDI  R27,HIGH(@0+(@1))
                 	CALL __EEPROMWRW
                 	.ENDM
                 
                 	.MACRO __PUTD1EN
                 	LDI  R26,LOW(@0+(@1))
                 	LDI  R27,HIGH(@0+(@1))
                 	CALL __EEPROMWRD
                 	.ENDM
                 
                 	.MACRO __PUTBR0MN
                 	STS  @0+(@1),R0
                 	.ENDM
                 
                 	.MACRO __PUTBMRN
                 	STS  @0+(@1),R@2
                 	.ENDM
                 
                 	.MACRO __PUTWMRN
                 	STS  @0+(@1),R@2
                 	STS  @0+(@1)+1,R@3
                 	.ENDM
                 
                 	.MACRO __PUTBZR
                 	STD  Z+@1,R@0
                 	.ENDM
                 
                 	.MACRO __PUTWZR
                 	STD  Z+@2,R@0
                 	STD  Z+@2+1,R@1
                 	.ENDM
                 
                 	.MACRO __GETW1R
                 	MOV  R30,R@0
                 	MOV  R31,R@1
                 	.ENDM
                 
                 	.MACRO __GETW2R
                 	MOV  R26,R@0
                 	MOV  R27,R@1
                 	.ENDM
                 
                 	.MACRO __GETWRN
                 	LDI  R@0,LOW(@2)
                 	LDI  R@1,HIGH(@2)
                 	.ENDM
                 
                 	.MACRO __PUTW1R
                 	MOV  R@0,R30
                 	MOV  R@1,R31
                 	.ENDM
                 
                 	.MACRO __PUTW2R
                 	MOV  R@0,R26
                 	MOV  R@1,R27
                 	.ENDM
                 
                 	.MACRO __ADDWRN
                 	SUBI R@0,LOW(-@2)
                 	SBCI R@1,HIGH(-@2)
                 	.ENDM
                 
                 	.MACRO __ADDWRR
                 	ADD  R@0,R@2
                 	ADC  R@1,R@3
                 	.ENDM
                 
                 	.MACRO __SUBWRN
                 	SUBI R@0,LOW(@2)
                 	SBCI R@1,HIGH(@2)
                 	.ENDM
                 
                 	.MACRO __SUBWRR
                 	SUB  R@0,R@2
                 	SBC  R@1,R@3
                 	.ENDM
                 
                 	.MACRO __ANDWRN
                 	ANDI R@0,LOW(@2)
                 	ANDI R@1,HIGH(@2)
                 	.ENDM
                 
                 	.MACRO __ANDWRR
                 	AND  R@0,R@2
                 	AND  R@1,R@3
                 	.ENDM
                 
                 	.MACRO __ORWRN
                 	ORI  R@0,LOW(@2)
                 	ORI  R@1,HIGH(@2)
                 	.ENDM
                 
                 	.MACRO __ORWRR
                 	OR   R@0,R@2
                 	OR   R@1,R@3
                 	.ENDM
                 
                 	.MACRO __EORWRR
                 	EOR  R@0,R@2
                 	EOR  R@1,R@3
                 	.ENDM
                 
                 	.MACRO __GETWRS
                 	LDD  R@0,Y+@2
                 	LDD  R@1,Y+@2+1
                 	.ENDM
                 
                 	.MACRO __PUTBSR
                 	STD  Y+@1,R@0
                 	.ENDM
                 
                 	.MACRO __PUTWSR
                 	STD  Y+@2,R@0
                 	STD  Y+@2+1,R@1
                 	.ENDM
                 
                 	.MACRO __MOVEWRR
                 	MOV  R@0,R@2
                 	MOV  R@1,R@3
                 	.ENDM
                 
                 	.MACRO __INWR
                 	IN   R@0,@2
                 	IN   R@1,@2+1
                 	.ENDM
                 
                 	.MACRO __OUTWR
                 	OUT  @2+1,R@1
                 	OUT  @2,R@0
                 	.ENDM
                 
                 	.MACRO __CALL1MN
                 	LDS  R30,@0+(@1)
                 	LDS  R31,@0+(@1)+1
                 	ICALL
                 	.ENDM
                 
                 	.MACRO __CALL1FN
                 	LDI  R30,LOW(2*@0+(@1))
                 	LDI  R31,HIGH(2*@0+(@1))
                 	CALL __GETW1PF
                 	ICALL
                 	.ENDM
                 
                 	.MACRO __CALL2EN
                 	LDI  R26,LOW(@0+(@1))
                 	LDI  R27,HIGH(@0+(@1))
                 	CALL __EEPROMRDW
                 	ICALL
                 	.ENDM
                 
                 	.MACRO __GETW1STACK
                 	IN   R26,SPL
                 	IN   R27,SPH
                 	ADIW R26,@0+1
                 	LD   R30,X+
                 	LD   R31,X
                 	.ENDM
                 
                 	.MACRO __GETD1STACK
                 	IN   R26,SPL
                 	IN   R27,SPH
                 	ADIW R26,@0+1
                 	LD   R30,X+
                 	LD   R31,X+
                 	LD   R22,X
                 	.ENDM
                 
                 	.MACRO __NBST
                 	BST  R@0,@1
                 	IN   R30,SREG
                 	LDI  R31,0x40
                 	EOR  R30,R31
                 	OUT  SREG,R30
                 	.ENDM
                 
                 
                 	.MACRO __PUTB1SN
                 	LDD  R26,Y+@0
                 	LDD  R27,Y+@0+1
                 	SUBI R26,LOW(-@1)
                 	SBCI R27,HIGH(-@1)
                 	ST   X,R30
                 	.ENDM
                 
                 	.MACRO __PUTW1SN
                 	LDD  R26,Y+@0
                 	LDD  R27,Y+@0+1
                 	SUBI R26,LOW(-@1)
                 	SBCI R27,HIGH(-@1)
                 	ST   X+,R30
                 	ST   X,R31
                 	.ENDM
                 
                 	.MACRO __PUTD1SN
                 	LDD  R26,Y+@0
                 	LDD  R27,Y+@0+1
                 	SUBI R26,LOW(-@1)
                 	SBCI R27,HIGH(-@1)
                 	CALL __PUTDP1
                 	.ENDM
                 
                 	.MACRO __PUTB1SNS
                 	LDD  R26,Y+@0
                 	LDD  R27,Y+@0+1
                 	ADIW R26,@1
                 	ST   X,R30
                 	.ENDM
                 
                 	.MACRO __PUTW1SNS
                 	LDD  R26,Y+@0
                 	LDD  R27,Y+@0+1
                 	ADIW R26,@1
                 	ST   X+,R30
                 	ST   X,R31
                 	.ENDM
                 
                 	.MACRO __PUTD1SNS
                 	LDD  R26,Y+@0
                 	LDD  R27,Y+@0+1
                 	ADIW R26,@1
                 	CALL __PUTDP1
                 	.ENDM
                 
                 	.MACRO __PUTB1PMN
                 	LDS  R26,@0
                 	LDS  R27,@0+1
                 	SUBI R26,LOW(-@1)
                 	SBCI R27,HIGH(-@1)
                 	ST   X,R30
                 	.ENDM
                 
                 	.MACRO __PUTW1PMN
                 	LDS  R26,@0
                 	LDS  R27,@0+1
                 	SUBI R26,LOW(-@1)
                 	SBCI R27,HIGH(-@1)
                 	ST   X+,R30
                 	ST   X,R31
                 	.ENDM
                 
                 	.MACRO __PUTD1PMN
                 	LDS  R26,@0
                 	LDS  R27,@0+1
                 	SUBI R26,LOW(-@1)
                 	SBCI R27,HIGH(-@1)
                 	CALL __PUTDP1
                 	.ENDM
                 
                 	.MACRO __PUTB1PMNS
                 	LDS  R26,@0
                 	LDS  R27,@0+1
                 	ADIW R26,@1
                 	ST   X,R30
                 	.ENDM
                 
                 	.MACRO __PUTW1PMNS
                 	LDS  R26,@0
                 	LDS  R27,@0+1
                 	ADIW R26,@1
                 	ST   X+,R30
                 	ST   X,R31
                 	.ENDM
                 
                 	.MACRO __PUTD1PMNS
                 	LDS  R26,@0
                 	LDS  R27,@0+1
                 	ADIW R26,@1
                 	CALL __PUTDP1
                 	.ENDM
                 
                 	.MACRO __PUTB1RN
                 	MOVW R26,R@0
                 	SUBI R26,LOW(-@1)
                 	SBCI R27,HIGH(-@1)
                 	ST   X,R30
                 	.ENDM
                 
                 	.MACRO __PUTW1RN
                 	MOVW R26,R@0
                 	SUBI R26,LOW(-@1)
                 	SBCI R27,HIGH(-@1)
                 	ST   X+,R30
                 	ST   X,R31
                 	.ENDM
                 
                 	.MACRO __PUTD1RN
                 	MOVW R26,R@0
                 	SUBI R26,LOW(-@1)
                 	SBCI R27,HIGH(-@1)
                 	CALL __PUTDP1
                 	.ENDM
                 
                 	.MACRO __PUTB1RNS
                 	MOVW R26,R@0
                 	ADIW R26,@1
                 	ST   X,R30
                 	.ENDM
                 
                 	.MACRO __PUTW1RNS
                 	MOVW R26,R@0
                 	ADIW R26,@1
                 	ST   X+,R30
                 	ST   X,R31
                 	.ENDM
                 
                 	.MACRO __PUTD1RNS
                 	MOVW R26,R@0
                 	ADIW R26,@1
                 	CALL __PUTDP1
                 	.ENDM
                 
                 	.MACRO __PUTB1RON
                 	MOV  R26,R@0
                 	MOV  R27,R@1
                 	SUBI R26,LOW(-@2)
                 	SBCI R27,HIGH(-@2)
                 	ST   X,R30
                 	.ENDM
                 
                 	.MACRO __PUTW1RON
                 	MOV  R26,R@0
                 	MOV  R27,R@1
                 	SUBI R26,LOW(-@2)
                 	SBCI R27,HIGH(-@2)
                 	ST   X+,R30
                 	ST   X,R31
                 	.ENDM
                 
                 	.MACRO __PUTD1RON
                 	MOV  R26,R@0
                 	MOV  R27,R@1
                 	SUBI R26,LOW(-@2)
                 	SBCI R27,HIGH(-@2)
                 	CALL __PUTDP1
                 	.ENDM
                 
                 	.MACRO __PUTB1RONS
                 	MOV  R26,R@0
                 	MOV  R27,R@1
                 	ADIW R26,@2
                 	ST   X,R30
                 	.ENDM
                 
                 	.MACRO __PUTW1RONS
                 	MOV  R26,R@0
                 	MOV  R27,R@1
                 	ADIW R26,@2
                 	ST   X+,R30
                 	ST   X,R31
                 	.ENDM
                 
                 	.MACRO __PUTD1RONS
                 	MOV  R26,R@0
                 	MOV  R27,R@1
                 	ADIW R26,@2
                 	CALL __PUTDP1
                 	.ENDM
                 
                 
                 	.MACRO __GETB1SX
                 	MOVW R30,R28
                 	SUBI R30,LOW(-@0)
                 	SBCI R31,HIGH(-@0)
                 	LD   R30,Z
                 	.ENDM
                 
                 	.MACRO __GETB1HSX
                 	MOVW R30,R28
                 	SUBI R30,LOW(-@0)
                 	SBCI R31,HIGH(-@0)
                 	LD   R31,Z
                 	.ENDM
                 
                 	.MACRO __GETW1SX
                 	MOVW R30,R28
                 	SUBI R30,LOW(-@0)
                 	SBCI R31,HIGH(-@0)
                 	LD   R0,Z+
                 	LD   R31,Z
                 	MOV  R30,R0
                 	.ENDM
                 
                 	.MACRO __GETD1SX
                 	MOVW R30,R28
                 	SUBI R30,LOW(-@0)
                 	SBCI R31,HIGH(-@0)
                 	LD   R0,Z+
                 	LD   R1,Z+
                 	LD   R22,Z+
                 	LD   R23,Z
                 	MOVW R30,R0
                 	.ENDM
                 
                 	.MACRO __GETB2SX
                 	MOVW R26,R28
                 	SUBI R26,LOW(-@0)
                 	SBCI R27,HIGH(-@0)
                 	LD   R26,X
                 	.ENDM
                 
                 	.MACRO __GETW2SX
                 	MOVW R26,R28
                 	SUBI R26,LOW(-@0)
                 	SBCI R27,HIGH(-@0)
                 	LD   R0,X+
                 	LD   R27,X
                 	MOV  R26,R0
                 	.ENDM
                 
                 	.MACRO __GETD2SX
                 	MOVW R26,R28
                 	SUBI R26,LOW(-@0)
                 	SBCI R27,HIGH(-@0)
                 	LD   R0,X+
                 	LD   R1,X+
                 	LD   R24,X+
                 	LD   R25,X
                 	MOVW R26,R0
                 	.ENDM
                 
                 	.MACRO __GETBRSX
                 	MOVW R30,R28
                 	SUBI R30,LOW(-@1)
                 	SBCI R31,HIGH(-@1)
                 	LD   R@0,Z
                 	.ENDM
                 
                 	.MACRO __GETWRSX
                 	MOVW R30,R28
                 	SUBI R30,LOW(-@2)
                 	SBCI R31,HIGH(-@2)
                 	LD   R@0,Z+
                 	LD   R@1,Z
                 	.ENDM
                 
                 	.MACRO __GETBRSX2
                 	MOVW R26,R28
                 	SUBI R26,LOW(-@1)
                 	SBCI R27,HIGH(-@1)
                 	LD   R@0,X
                 	.ENDM
                 
                 	.MACRO __GETWRSX2
                 	MOVW R26,R28
                 	SUBI R26,LOW(-@2)
                 	SBCI R27,HIGH(-@2)
                 	LD   R@0,X+
                 	LD   R@1,X
                 	.ENDM
                 
                 	.MACRO __LSLW8SX
                 	MOVW R30,R28
                 	SUBI R30,LOW(-@0)
                 	SBCI R31,HIGH(-@0)
                 	LD   R31,Z
                 	CLR  R30
                 	.ENDM
                 
                 	.MACRO __PUTB1SX
                 	MOVW R26,R28
                 	SUBI R26,LOW(-@0)
                 	SBCI R27,HIGH(-@0)
                 	ST   X,R30
                 	.ENDM
                 
                 	.MACRO __PUTW1SX
                 	MOVW R26,R28
                 	SUBI R26,LOW(-@0)
                 	SBCI R27,HIGH(-@0)
                 	ST   X+,R30
                 	ST   X,R31
                 	.ENDM
                 
                 	.MACRO __PUTD1SX
                 	MOVW R26,R28
                 	SUBI R26,LOW(-@0)
                 	SBCI R27,HIGH(-@0)
                 	ST   X+,R30
                 	ST   X+,R31
                 	ST   X+,R22
                 	ST   X,R23
                 	.ENDM
                 
                 	.MACRO __CLRW1SX
                 	MOVW R26,R28
                 	SUBI R26,LOW(-@0)
                 	SBCI R27,HIGH(-@0)
                 	ST   X+,R30
                 	ST   X,R30
                 	.ENDM
                 
                 	.MACRO __CLRD1SX
                 	MOVW R26,R28
                 	SUBI R26,LOW(-@0)
                 	SBCI R27,HIGH(-@0)
                 	ST   X+,R30
                 	ST   X+,R30
                 	ST   X+,R30
                 	ST   X,R30
                 	.ENDM
                 
                 	.MACRO __PUTB2SX
                 	MOVW R30,R28
                 	SUBI R30,LOW(-@0)
                 	SBCI R31,HIGH(-@0)
                 	ST   Z,R26
                 	.ENDM
                 
                 	.MACRO __PUTW2SX
                 	MOVW R30,R28
                 	SUBI R30,LOW(-@0)
                 	SBCI R31,HIGH(-@0)
                 	ST   Z+,R26
                 	ST   Z,R27
                 	.ENDM
                 
                 	.MACRO __PUTD2SX
                 	MOVW R30,R28
                 	SUBI R30,LOW(-@0)
                 	SBCI R31,HIGH(-@0)
                 	ST   Z+,R26
                 	ST   Z+,R27
                 	ST   Z+,R24
                 	ST   Z,R25
                 	.ENDM
                 
                 	.MACRO __PUTBSRX
                 	MOVW R30,R28
                 	SUBI R30,LOW(-@1)
                 	SBCI R31,HIGH(-@1)
                 	ST   Z,R@0
                 	.ENDM
                 
                 	.MACRO __PUTWSRX
                 	MOVW R30,R28
                 	SUBI R30,LOW(-@2)
                 	SBCI R31,HIGH(-@2)
                 	ST   Z+,R@0
                 	ST   Z,R@1
                 	.ENDM
                 
                 	.MACRO __PUTB1SNX
                 	MOVW R26,R28
                 	SUBI R26,LOW(-@0)
                 	SBCI R27,HIGH(-@0)
                 	LD   R0,X+
                 	LD   R27,X
                 	MOV  R26,R0
                 	SUBI R26,LOW(-@1)
                 	SBCI R27,HIGH(-@1)
                 	ST   X,R30
                 	.ENDM
                 
                 	.MACRO __PUTW1SNX
                 	MOVW R26,R28
                 	SUBI R26,LOW(-@0)
                 	SBCI R27,HIGH(-@0)
                 	LD   R0,X+
                 	LD   R27,X
                 	MOV  R26,R0
                 	SUBI R26,LOW(-@1)
                 	SBCI R27,HIGH(-@1)
                 	ST   X+,R30
                 	ST   X,R31
                 	.ENDM
                 
                 	.MACRO __PUTD1SNX
                 	MOVW R26,R28
                 	SUBI R26,LOW(-@0)
                 	SBCI R27,HIGH(-@0)
                 	LD   R0,X+
                 	LD   R27,X
                 	MOV  R26,R0
                 	SUBI R26,LOW(-@1)
                 	SBCI R27,HIGH(-@1)
                 	ST   X+,R30
                 	ST   X+,R31
                 	ST   X+,R22
                 	ST   X,R23
                 	.ENDM
                 
                 	.MACRO __MULBRR
                 	MULS R@0,R@1
                 	MOVW R30,R0
                 	.ENDM
                 
                 	.MACRO __MULBRRU
                 	MUL  R@0,R@1
                 	MOVW R30,R0
                 	.ENDM
                 
                 	.MACRO __MULBRR0
                 	MULS R@0,R@1
                 	.ENDM
                 
                 	.MACRO __MULBRRU0
                 	MUL  R@0,R@1
                 	.ENDM
                 
                 	.MACRO __MULBNWRU
                 	LDI  R26,@2
                 	MUL  R26,R@0
                 	MOVW R30,R0
                 	MUL  R26,R@1
                 	ADD  R31,R0
                 	.ENDM
                 
                 ;NAME DEFINITIONS FOR GLOBAL VARIABLES ALLOCATED TO REGISTERS
                 	.DEF _rpwm=R4
                 	.DEF _lpwm=R6
                 	.DEF _max1=R8
                 	.DEF _m=R10
                 	.DEF _lc=R12
                 
                 	.CSEG
                 	.ORG 0x00
                 
                 ;START OF CODE MARKER
                 __START_OF_CODE:
                 
                 ;INTERRUPT VECTORS
000000 940c 0253 	JMP  __RESET
000002 940c 0000 	JMP  0x00
000004 940c 0000 	JMP  0x00
000006 940c 0000 	JMP  0x00
000008 940c 0000 	JMP  0x00
00000a 940c 0000 	JMP  0x00
00000c 940c 0000 	JMP  0x00
00000e 940c 0000 	JMP  0x00
000010 940c 0000 	JMP  0x00
000012 940c 0000 	JMP  0x00
000014 940c 0000 	JMP  0x00
000016 940c 02a6 	JMP  _timer0_ovf_isr
000018 940c 0000 	JMP  0x00
00001a 940c 0000 	JMP  0x00
00001c 940c 0000 	JMP  0x00
00001e 940c 0000 	JMP  0x00
000020 940c 0000 	JMP  0x00
000022 940c 0000 	JMP  0x00
000024 940c 0000 	JMP  0x00
000026 940c 0000 	JMP  0x00
000028 940c 0000 	JMP  0x00
                 
                 _tbl10_G100:
00002a 2710
00002b 03e8
00002c 0064
00002d 000a      	.DB  0x10,0x27,0xE8,0x3,0x64,0x0,0xA,0x0
00002e 0001      	.DB  0x1,0x0
                 _tbl16_G100:
00002f 1000
000030 0100
000031 0010
000032 0001      	.DB  0x0,0x10,0x0,0x1,0x10,0x0,0x1,0x0
                 
                 ;REGISTER BIT VARIABLES INITIALIZATION
                 __REG_BIT_VARS:
000033 0000      	.DW  0x0000
                 
                 _0x3:
D:\MAHFUDZ\Box Sync\Personal\ROBOT\Program\Riset LF\Baru 2017 Sensor 14\List\a.asm(1105): warning: .cseg .db misalignment - padding zero byte
000034 0064      	.DB  0x64
                 _0x0:
000035 4f44
000036 454e
000037 5320
000038 5641      	.DB  0x44,0x4F,0x4E,0x45,0x20,0x53,0x41,0x56
000039 2145
00003a 2000
00003b 2020
00003c 2020      	.DB  0x45,0x21,0x0,0x20,0x20,0x20,0x20,0x20
00003d 4552
00003e 4441
00003f 2059
000040 4f54      	.DB  0x52,0x45,0x41,0x44,0x59,0x20,0x54,0x4F
000041 2020
000042 2020
000043 0020
000044 2020      	.DB  0x20,0x20,0x20,0x20,0x20,0x0,0x20,0x20
000045 4320
000046 4c41
000047 4249
000048 4152      	.DB  0x20,0x43,0x41,0x4C,0x49,0x42,0x52,0x41
000049 4954
00004a 4e4f
00004b 2020
00004c 5300      	.DB  0x54,0x49,0x4F,0x4E,0x20,0x20,0x0,0x53
00004d 6163
00004e 696e
00004f 676e
000050 7320      	.DB  0x63,0x61,0x6E,0x69,0x6E,0x67,0x20,0x73
000051 6e65
000052 6f73
000053 0072
000054 205b      	.DB  0x65,0x6E,0x73,0x6F,0x72,0x0,0x5B,0x20
000055 6425
000056 5d20
000057 255b
000058 5d69      	.DB  0x25,0x64,0x20,0x5D,0x5B,0x25,0x69,0x5D
000059 5300
00005a 5641
00005b 2045
00005c 4144      	.DB  0x0,0x53,0x41,0x56,0x45,0x20,0x44,0x41
00005d 4154
00005e 2e2e
00005f 002e
000060 4f44      	.DB  0x54,0x41,0x2E,0x2E,0x2E,0x0,0x44,0x4F
000061 454e
000062 0021
000063 7250
000064 706f      	.DB  0x4E,0x45,0x21,0x0,0x50,0x72,0x6F,0x70
000065 726f
000066 6973
000067 6e6f
000068 6c61      	.DB  0x6F,0x72,0x73,0x69,0x6F,0x6E,0x61,0x6C
000069 2020
00006a 2020
00006b 0020
00006c 704b      	.DB  0x20,0x20,0x20,0x20,0x20,0x0,0x4B,0x70
00006d 253d
00006e 3330
00006f 2064
000070 4900      	.DB  0x3D,0x25,0x30,0x33,0x64,0x20,0x0,0x49
000071 746e
000072 6765
000073 6172
000074 6974      	.DB  0x6E,0x74,0x65,0x67,0x72,0x61,0x74,0x69
000075 2066
000076 4b00
000077 3d69
000078 3025      	.DB  0x66,0x20,0x0,0x4B,0x69,0x3D,0x25,0x30
000079 6433
00007a 0020
00007b 6544
00007c 6572      	.DB  0x33,0x64,0x20,0x0,0x44,0x65,0x72,0x65
00007d 6176
00007e 6974
00007f 2066
000080 2020      	.DB  0x76,0x61,0x74,0x69,0x66,0x20,0x20,0x20
000081 0020
000082 644b
000083 253d
000084 3330      	.DB  0x20,0x0,0x4B,0x64,0x3D,0x25,0x30,0x33
000085 2064
000086 2000
000087 2020
000088 5b20      	.DB  0x64,0x20,0x0,0x20,0x20,0x20,0x20,0x5B
000089 4553
00008a 5454
00008b 4e49
00008c 5d47      	.DB  0x53,0x45,0x54,0x54,0x49,0x4E,0x47,0x5D
00008d 5400
00008e 6d69
00008f 7265
000090 2520      	.DB  0x0,0x54,0x69,0x6D,0x65,0x72,0x20,0x25
000091 3230
000092 2064
000093 253d
000094 3330      	.DB  0x30,0x32,0x64,0x20,0x3D,0x25,0x30,0x33
000095 2064
000096 2020
000097 0020
000098 6f43      	.DB  0x64,0x20,0x20,0x20,0x20,0x0,0x43,0x6F
000099 6e75
00009a 3174
00009b 2520
00009c 3230      	.DB  0x75,0x6E,0x74,0x31,0x20,0x25,0x30,0x32
00009d 2064
00009e 4c00
00009f 736f
0000a0 2074      	.DB  0x64,0x20,0x0,0x4C,0x6F,0x73,0x74,0x20
0000a1 2020
0000a2 4b00
0000a3 6e61
0000a4 6e61      	.DB  0x20,0x20,0x0,0x4B,0x61,0x6E,0x61,0x6E
0000a5 2020
0000a6 4b00
0000a7 7269
0000a8 2069      	.DB  0x20,0x20,0x0,0x4B,0x69,0x72,0x69,0x20
0000a9 2020
0000aa 4c00
0000ab 736f
0000ac 3174      	.DB  0x20,0x20,0x0,0x4C,0x6F,0x73,0x74,0x31
0000ad 2020
0000ae 5300
0000af 6f74
0000b0 2070      	.DB  0x20,0x20,0x0,0x53,0x74,0x6F,0x70,0x20
0000b1 2020
0000b2 4300
0000b3 756f
0000b4 746e      	.DB  0x20,0x20,0x0,0x43,0x6F,0x75,0x6E,0x74
0000b5 2032
0000b6 3025
0000b7 6432
0000b8 0020      	.DB  0x32,0x20,0x25,0x30,0x32,0x64,0x20,0x0
0000b9 6f52
0000ba 6174
0000bb 6574
0000bc 3025      	.DB  0x52,0x6F,0x74,0x61,0x74,0x65,0x25,0x30
0000bd 6432
0000be 3d20
0000bf 3025
0000c0 6433      	.DB  0x32,0x64,0x20,0x3D,0x25,0x30,0x33,0x64
0000c1 2020
0000c2 2020
0000c3 5300
0000c4 6570      	.DB  0x20,0x20,0x20,0x20,0x0,0x53,0x70,0x65
0000c5 6465
0000c6 2031
0000c7 3025
0000c8 6432      	.DB  0x65,0x64,0x31,0x20,0x25,0x30,0x32,0x64
0000c9 3d20
0000ca 3025
0000cb 6433
0000cc 2020      	.DB  0x20,0x3D,0x25,0x30,0x33,0x64,0x20,0x20
0000cd 2020
0000ce 5300
0000cf 6570
0000d0 6465      	.DB  0x20,0x20,0x0,0x53,0x70,0x65,0x65,0x64
0000d1 2032
0000d2 3025
0000d3 6432
0000d4 3d20      	.DB  0x32,0x20,0x25,0x30,0x32,0x64,0x20,0x3D
0000d5 3025
0000d6 6433
0000d7 2020
0000d8 2020      	.DB  0x25,0x30,0x33,0x64,0x20,0x20,0x20,0x20
0000d9 4300
0000da 2570
0000db 3230
0000dc 2064      	.DB  0x0,0x43,0x70,0x25,0x30,0x32,0x64,0x20
0000dd 6954
0000de 656d
0000df 253d
0000e0 3330      	.DB  0x54,0x69,0x6D,0x65,0x3D,0x25,0x30,0x33
0000e1 2064
0000e2 2020
0000e3 0020
0000e4 7043      	.DB  0x64,0x20,0x20,0x20,0x20,0x0,0x43,0x70
0000e5 3025
0000e6 6432
0000e7 5220
0000e8 6165      	.DB  0x25,0x30,0x32,0x64,0x20,0x52,0x65,0x61
0000e9 3d64
0000ea 3025
0000eb 6433
0000ec 2020      	.DB  0x64,0x3D,0x25,0x30,0x33,0x64,0x20,0x20
0000ed 2020
0000ee 5300
0000ef 6e65
0000f0 6f73      	.DB  0x20,0x20,0x0,0x53,0x65,0x6E,0x73,0x6F
0000f1 2572
0000f2 2064
0000f3 3e2d
0000f4 6425      	.DB  0x72,0x25,0x64,0x20,0x2D,0x3E,0x25,0x64
0000f5 2020
0000f6 2020
0000f7 0020
0000f8 6543      	.DB  0x20,0x20,0x20,0x20,0x20,0x0,0x43,0x65
0000f9 206b
0000fa 6f50
0000fb 6e69
0000fc 5b74      	.DB  0x6B,0x20,0x50,0x6F,0x69,0x6E,0x74,0x5B
0000fd 3025
0000fe 6432
0000ff 205d
000100 2020      	.DB  0x25,0x30,0x32,0x64,0x5D,0x20,0x20,0x20
000101 2020
000102 0020
000103 2e31
000104 6143      	.DB  0x20,0x20,0x20,0x0,0x31,0x2E,0x43,0x61
000105 696c
000106 7262
000107 7461
000108 6f69      	.DB  0x6C,0x69,0x62,0x72,0x61,0x74,0x69,0x6F
000109 206e
00010a 6425
00010b 0020
00010c 2e32      	.DB  0x6E,0x20,0x25,0x64,0x20,0x0,0x32,0x2E
00010d 7053
00010e 6565
00010f 3d64
000110 6425      	.DB  0x53,0x70,0x65,0x65,0x64,0x3D,0x25,0x64
000111 2020
000112 0020
000113 2e33
000114 654b      	.DB  0x20,0x20,0x20,0x0,0x33,0x2E,0x4B,0x65
000115 2e63
000116 6542
000117 6f6c
000118 3d6b      	.DB  0x63,0x2E,0x42,0x65,0x6C,0x6F,0x6B,0x3D
000119 6425
00011a 2020
00011b 0020
00011c 2e34      	.DB  0x25,0x64,0x20,0x20,0x20,0x0,0x34,0x2E
00011d 3500
00011e 502e
00011f 4449
000120 0020      	.DB  0x0,0x35,0x2E,0x50,0x49,0x44,0x20,0x0
000121 2e36
000122 7453
000123 6172
000124 6574      	.DB  0x36,0x2E,0x53,0x74,0x72,0x61,0x74,0x65
000125 6967
000126 5b00
000127 2e36
000128 7453      	.DB  0x67,0x69,0x0,0x5B,0x36,0x2E,0x53,0x74
000129 6172
00012a 6574
00012b 6967
00012c 005d      	.DB  0x72,0x61,0x74,0x65,0x67,0x69,0x5D,0x0
00012d 2e31
00012e 7053
00012f 6565
000130 2064      	.DB  0x31,0x2E,0x53,0x70,0x65,0x65,0x64,0x20
000131 7453
000132 6172
000133 253d
000134 2064      	.DB  0x53,0x74,0x72,0x61,0x3D,0x25,0x64,0x20
000135 2020
000136 3200
000137 532e
000138 6174      	.DB  0x20,0x20,0x0,0x32,0x2E,0x53,0x74,0x61
000139 7472
00013a 4120
00013b 3300
00013c 532e      	.DB  0x72,0x74,0x20,0x41,0x0,0x33,0x2E,0x53
00013d 6174
00013e 7472
00013f 4220
000140 3400      	.DB  0x74,0x61,0x72,0x74,0x20,0x42,0x0,0x34
000141 532e
000142 6174
000143 7472
000144 4320      	.DB  0x2E,0x53,0x74,0x61,0x72,0x74,0x20,0x43
000145 3500
000146 532e
000147 6174
000148 7472      	.DB  0x0,0x35,0x2E,0x53,0x74,0x61,0x72,0x74
000149 4420
00014a 3700
00014b 002e
00014c 2e38      	.DB  0x20,0x44,0x0,0x37,0x2E,0x0,0x38,0x2E
00014d 6954
00014e 656d
00014f 2072
000150 2020      	.DB  0x54,0x69,0x6D,0x65,0x72,0x20,0x20,0x20
000151 2020
000152 0020
000153 2e39
000154 7053      	.DB  0x20,0x20,0x20,0x0,0x39,0x2E,0x53,0x70
000155 6565
000156 3164
000157 4320
000158 756f      	.DB  0x65,0x65,0x64,0x31,0x20,0x43,0x6F,0x75
000159 746e
00015a 2020
00015b 2020
00015c 0020      	.DB  0x6E,0x74,0x20,0x20,0x20,0x20,0x20,0x0
00015d 3031
00015e 532e
00015f 6570
000160 6465      	.DB  0x31,0x30,0x2E,0x53,0x70,0x65,0x65,0x64
000161 2032
000162 6f43
000163 6e75
000164 2074      	.DB  0x32,0x20,0x43,0x6F,0x75,0x6E,0x74,0x20
000165 2020
000166 2020
000167 3100
000168 2e31      	.DB  0x20,0x20,0x20,0x20,0x0,0x31,0x31,0x2E
000169 6544
00016a 616c
00016b 2079
00016c 2020      	.DB  0x44,0x65,0x6C,0x61,0x79,0x20,0x20,0x20
00016d 2020
00016e 2020
00016f 3100
000170 2e31      	.DB  0x20,0x20,0x20,0x20,0x0,0x31,0x31,0x2E
000171 6c50
000172 6e61
000173 5420
000174 6d69      	.DB  0x50,0x6C,0x61,0x6E,0x20,0x54,0x69,0x6D
000175 7265
000176 2020
000177 2020
000178 3100      	.DB  0x65,0x72,0x20,0x20,0x20,0x20,0x0,0x31
000179 2e32
00017a 7441
00017b 7275
00017c 4320      	.DB  0x32,0x2E,0x41,0x74,0x75,0x72,0x20,0x43
00017d 0050
00017e 3331
00017f 5b2e
000180 6f43      	.DB  0x50,0x0,0x31,0x33,0x2E,0x5B,0x43,0x6F
000181 6e75
000182 6574
000183 5d72
000184 4e20      	.DB  0x75,0x6E,0x74,0x65,0x72,0x5D,0x20,0x4E
000185 726f
000186 616d
000187 206c
000188 3100      	.DB  0x6F,0x72,0x6D,0x61,0x6C,0x20,0x0,0x31
000189 2e33
00018a 614a
00018b 616c
00018c 206e      	.DB  0x33,0x2E,0x4A,0x61,0x6C,0x61,0x6E,0x20
00018d 6a41
00018e 0061
00018f 3431
000190 432e      	.DB  0x41,0x6A,0x61,0x0,0x31,0x34,0x2E,0x43
000191 756f
000192 746e
000193 7265
000194 3220      	.DB  0x6F,0x75,0x6E,0x74,0x65,0x72,0x20,0x32
000195 0020
000196 3431
000197 432e
000198 756f      	.DB  0x20,0x0,0x31,0x34,0x2E,0x43,0x6F,0x75
000199 746e
00019a 7265
00019b 3120
00019c 0020      	.DB  0x6E,0x74,0x65,0x72,0x20,0x31,0x20,0x0
00019d 3531
00019e 532e
00019f 6f6d
0001a0 746f      	.DB  0x31,0x35,0x2E,0x53,0x6D,0x6F,0x6F,0x74
0001a1 6968
0001a2 676e
0001a3 253d
0001a4 2064      	.DB  0x68,0x69,0x6E,0x67,0x3D,0x25,0x64,0x20
0001a5 2020
0001a6 3100
0001a7 2e36
0001a8 6543      	.DB  0x20,0x20,0x0,0x31,0x36,0x2E,0x43,0x65
0001a9 206b
0001aa 6553
0001ab 736e
0001ac 726f      	.DB  0x6B,0x20,0x53,0x65,0x6E,0x73,0x6F,0x72
0001ad 3100
0001ae 2e37
0001af 6552
0001b0 206d      	.DB  0x0,0x31,0x37,0x2E,0x52,0x65,0x6D,0x20
0001b1 253d
0001b2 2064
0001b3 2020
0001b4 3100      	.DB  0x3D,0x25,0x64,0x20,0x20,0x20,0x0,0x31
0001b5 2e38
0001b6 6857
0001b7 7469
0001b8 2065      	.DB  0x38,0x2E,0x57,0x68,0x69,0x74,0x65,0x20
0001b9 694c
0001ba 656e
0001bb 0020
0001bc 3831      	.DB  0x4C,0x69,0x6E,0x65,0x20,0x0,0x31,0x38
0001bd 422e
0001be 616c
0001bf 6b63
0001c0 4c20      	.DB  0x2E,0x42,0x6C,0x61,0x63,0x6B,0x20,0x4C
0001c1 6e69
0001c2 2065
0001c3 3100
0001c4 2e38      	.DB  0x69,0x6E,0x65,0x20,0x0,0x31,0x38,0x2E
0001c5 7541
0001c6 6f74
0001c7 4c20
0001c8 6e69      	.DB  0x41,0x75,0x74,0x6F,0x20,0x4C,0x69,0x6E
0001c9 2065
0001ca 0020
0001cb 4954
0001cc 454d      	.DB  0x65,0x20,0x20,0x0,0x54,0x49,0x4D,0x45
0001cd 3a52
0001ce 6425
0001cf 4320
0001d0 554f      	.DB  0x52,0x3A,0x25,0x64,0x20,0x43,0x4F,0x55
0001d1 544e
0001d2 253a
0001d3 0064
0001d4 3025      	.DB  0x4E,0x54,0x3A,0x25,0x64,0x0,0x25,0x30
0001d5 6433
0001d6 253c
0001d7 3230
0001d8 3e64      	.DB  0x33,0x64,0x3C,0x25,0x30,0x32,0x64,0x3E
0001d9 3025
0001da 6433
0001db 2520
0001dc 3330      	.DB  0x25,0x30,0x33,0x64,0x20,0x25,0x30,0x33
0001dd 2064
0001de 2020
0001df 2500
0001e0 3330      	.DB  0x64,0x20,0x20,0x20,0x0,0x25,0x30,0x33
0001e1 2064
0001e2 253c
0001e3 3230
0001e4 3e64      	.DB  0x64,0x20,0x3C,0x25,0x30,0x32,0x64,0x3E
0001e5 2520
0001e6 3330
0001e7 2064
0001e8 3025      	.DB  0x20,0x25,0x30,0x33,0x64,0x20,0x25,0x30
0001e9 6433
0001ea 2020
0001eb 0020
0001ec 532e      	.DB  0x33,0x64,0x20,0x20,0x20,0x0,0x2E,0x53
0001ed 6174
0001ee 7472
0001ef 413d
0001f0 2000      	.DB  0x74,0x61,0x72,0x74,0x3D,0x41,0x0,0x20
0001f1 5043
0001f2 313d
0001f3 2e00
0001f4 7453      	.DB  0x43,0x50,0x3D,0x31,0x0,0x2E,0x53,0x74
0001f5 7261
0001f6 3d74
0001f7 0042
0001f8 532e      	.DB  0x61,0x72,0x74,0x3D,0x42,0x0,0x2E,0x53
0001f9 6174
0001fa 7472
0001fb 433d
0001fc 2e00      	.DB  0x74,0x61,0x72,0x74,0x3D,0x43,0x0,0x2E
0001fd 7453
0001fe 7261
0001ff 3d74
000200 0044      	.DB  0x53,0x74,0x61,0x72,0x74,0x3D,0x44,0x0
000201 2020
000202 6557
000203 636c
000204 6d6f      	.DB  0x20,0x20,0x57,0x65,0x6C,0x63,0x6F,0x6D
000205 2065
000206 6f54
000207 2000
000208 4554      	.DB  0x65,0x20,0x54,0x6F,0x0,0x20,0x54,0x45
000209 4d55
00020a 4320
00020b 524f
00020c 2e50      	.DB  0x55,0x4D,0x20,0x43,0x4F,0x52,0x50,0x2E
00020d 4600
00020e 726f
00020f 616d
000210 2074      	.DB  0x0,0x46,0x6F,0x72,0x6D,0x61,0x74,0x20
000211 6144
000212 6174
000213 4e5b
000214 005d      	.DB  0x44,0x61,0x74,0x61,0x5B,0x4E,0x5D,0x0
000215 6162
000216 6174
000217 206c
000218 6f66      	.DB  0x62,0x61,0x74,0x61,0x6C,0x20,0x66,0x6F
000219 6d72
00021a 7461
00021b 4600
00021c 726f      	.DB  0x72,0x6D,0x61,0x74,0x0,0x46,0x6F,0x72
00021d 616d
00021e 2074
00021f 6144
000220 6174      	.DB  0x6D,0x61,0x74,0x20,0x44,0x61,0x74,0x61
000221 595b
000222 005d
000223 7250
000224 736f      	.DB  0x5B,0x59,0x5D,0x0,0x50,0x72,0x6F,0x73
000225 7365
000226 4620
000227 726f
000228 616d      	.DB  0x65,0x73,0x20,0x46,0x6F,0x72,0x6D,0x61
000229 0074
00022a 2e2e
00022b 2e2e
00022c 2e2e      	.DB  0x74,0x0,0x2E,0x2E,0x2E,0x2E,0x2E,0x2E
00022d 2e2e
00022e 2e2e
00022f 2e2e
000230 2e2e      	.DB  0x2E,0x2E,0x2E,0x2E,0x2E,0x2E,0x2E,0x2E
000231 2e2e
000232 4600
000233 726f
000234 616d      	.DB  0x2E,0x2E,0x0,0x46,0x6F,0x72,0x6D,0x61
000235 2074
000236 6553
000237 656c
000238 6173      	.DB  0x74,0x20,0x53,0x65,0x6C,0x65,0x73,0x61
000239 2169
00023a 2000
00023b 7453
00023c 7261      	.DB  0x69,0x21,0x0,0x20,0x53,0x74,0x61,0x72
00023d 3d74
00023e 0041
00023f 432e
000240 3d50      	.DB  0x74,0x3D,0x41,0x0,0x2E,0x43,0x50,0x3D
000241 0031      	.DB  0x31,0x0
                 _0x2020003:
000242 c080      	.DB  0x80,0xC0
                 
                 __GLOBAL_INI_TBL:
000243 0001      	.DW  0x01
000244 0002      	.DW  0x02
000245 0066      	.DW  __REG_BIT_VARS*2
                 
000246 0001      	.DW  0x01
000247 028d      	.DW  _batas
000248 0068      	.DW  _0x3*2
                 
000249 000d      	.DW  0x0D
00024a 0260      	.DW  _0x2EB
00024b 0402      	.DW  _0x0*2+920
                 
00024c 000c      	.DW  0x0C
00024d 026d      	.DW  _0x2EB+13
00024e 040f      	.DW  _0x0*2+933
                 
00024f 0002      	.DW  0x02
000250 05e5      	.DW  __base_y_G101
000251 0484      	.DW  _0x2020003*2
                 
                 _0xFFFFFFFF:
000252 0000      	.DW  0
                 
                 __RESET:
000253 94f8      	CLI
000254 27ee      	CLR  R30
000255 bbec      	OUT  EECR,R30
                 
                 ;INTERRUPT VECTORS ARE PLACED
                 ;AT THE START OF FLASH
000256 e0f1      	LDI  R31,1
000257 bffb      	OUT  GICR,R31
000258 bfeb      	OUT  GICR,R30
000259 bfe5      	OUT  MCUCR,R30
                 
                 ;DISABLE WATCHDOG
00025a e1f8      	LDI  R31,0x18
00025b bdf1      	OUT  WDTCR,R31
00025c bde1      	OUT  WDTCR,R30
                 
                 ;CLEAR R2-R14
00025d e08d      	LDI  R24,(14-2)+1
00025e e0a2      	LDI  R26,2
00025f 27bb      	CLR  R27
                 __CLEAR_REG:
000260 93ed      	ST   X+,R30
000261 958a      	DEC  R24
000262 f7e9      	BRNE __CLEAR_REG
                 
                 ;CLEAR SRAM
000263 e080      	LDI  R24,LOW(__CLEAR_SRAM_SIZE)
000264 e098      	LDI  R25,HIGH(__CLEAR_SRAM_SIZE)
000265 e6a0      	LDI  R26,__SRAM_START
                 __CLEAR_SRAM:
000266 93ed      	ST   X+,R30
000267 9701      	SBIW R24,1
000268 f7e9      	BRNE __CLEAR_SRAM
                 
                 ;GLOBAL VARIABLES INITIALIZATION
000269 e8e6      	LDI  R30,LOW(__GLOBAL_INI_TBL*2)
00026a e0f4      	LDI  R31,HIGH(__GLOBAL_INI_TBL*2)
                 __GLOBAL_INI_NEXT:
00026b 9185      	LPM  R24,Z+
00026c 9195      	LPM  R25,Z+
00026d 9700      	SBIW R24,0
00026e f061      	BREQ __GLOBAL_INI_END
00026f 91a5      	LPM  R26,Z+
000270 91b5      	LPM  R27,Z+
000271 9005      	LPM  R0,Z+
000272 9015      	LPM  R1,Z+
000273 01bf      	MOVW R22,R30
000274 01f0      	MOVW R30,R0
                 __GLOBAL_INI_LOOP:
000275 9005      	LPM  R0,Z+
000276 920d      	ST   X+,R0
000277 9701      	SBIW R24,1
000278 f7e1      	BRNE __GLOBAL_INI_LOOP
000279 01fb      	MOVW R30,R22
00027a cff0      	RJMP __GLOBAL_INI_NEXT
                 __GLOBAL_INI_END:
                 
                 ;HARDWARE STACK POINTER INITIALIZATION
00027b e5ef      	LDI  R30,LOW(__SRAM_END-__HEAP_SIZE)
00027c bfed      	OUT  SPL,R30
00027d e0e8      	LDI  R30,HIGH(__SRAM_END-__HEAP_SIZE)
00027e bfee      	OUT  SPH,R30
                 
                 ;DATA STACK POINTER INITIALIZATION
00027f e6c0      	LDI  R28,LOW(__SRAM_START+__DSTACK_SIZE)
000280 e0d2      	LDI  R29,HIGH(__SRAM_START+__DSTACK_SIZE)
                 
000281 940c 11d4 	JMP  _main
                 
                 	.ESEG
                 	.ORG 0
                 
                 	.DSEG
                 	.ORG 0x260
                 
                 	.CSEG
                 ;/*****************************************************
                 ;Project : Line Follower Source Code Development
                 ;Version : Pzr 2.10
                 ;Date    : 04/01/2016
                 ;Author  : Tim Robot UM
                 ;Company : RDF Corporations
                 ;Comments: Source code development for LF-UM team, Gunakan secara bijak!
                 ;Dengan Ketentuan Sbb:
                 ;1. Jangan sebarkan source code ini kepada selain anggota team LF-UM.
                 ;2. Anggota yang sudah mendapatkan source code ini harus benar-benar bersedia
                 ;   untuk loyal terhadap team dan mampu memberikan kontribusi terhadap pengembangan
                 ;   LF-UM.
                 ;3. Melanggar ketentuan dosa lho rek.
                 ;
                 ;Chip type               : ATmega32
                 ;Program type            : Application
                 ;AVR Core Clock frequency: 16.000000 MHz
                 ;Memory model            : Small
                 ;External RAM size       : 0
                 ;Data Stack size         : 512
                 ;*****************************************************/
                 ;
                 ;#include <mega32.h>
                 	#ifndef __SLEEP_DEFINED__
                 	#define __SLEEP_DEFINED__
                 	.EQU __se_bit=0x80
                 	.EQU __sm_mask=0x70
                 	.EQU __sm_powerdown=0x20
                 	.EQU __sm_powersave=0x30
                 	.EQU __sm_standby=0x60
                 	.EQU __sm_ext_standby=0x70
                 	.EQU __sm_adc_noise_red=0x10
                 	.SET power_ctrl_reg=mcucr
                 	#endif
                 ;#include <delay.h>
                 ;#include <stdio.h>
                 ;#include <alcd.h>
                 ;#define ADC_VREF_TYPE 0x20
                 ;#define s1              PINC.0 //kanan1
                 ;#define s2              PINC.2 //kiri2
                 ;#define s3              PINC.3 //kiri1
                 ;#define s4              PINC.4 //bawah
                 ;#define s5              PINC.1 //kanan2
                 ;#define s6              PINC.5 //atas
                 ;#define led             PORTD.7
                 ;#define R               PORTC.6
                 ;#define L               PORTC.7
                 ;#define lmp             PORTB.3
                 ;#define kiju            OCR1B
                 ;#define kidur           PORTD.3
                 ;#define kadur           PORTD.6
                 ;#define kaju            OCR1A
                 ;#define input           PIND.0
                 ;#define output          PORTD.1
                 ;
                 ;eeprom unsigned char esensitive[14];
                 ;eeprom unsigned char espeed[101];
                 ;eeprom unsigned char espeed1[101];
                 ;eeprom unsigned char etimer[101];
                 ;eeprom unsigned char eplan[21];
                 ;eeprom unsigned char eread[21];
                 ;eeprom unsigned char ecut[101];
                 ;eeprom unsigned char ecut1[101];
                 ;eeprom unsigned char edel[101];
                 ;eeprom unsigned char eencomp=0;
                 ;eeprom unsigned char emode=0;
                 ;eeprom unsigned char emodekanan=0;
                 ;eeprom unsigned char epulsa=5;
                 ;eeprom unsigned char ekp=10;
                 ;eeprom unsigned char ekd=100;
                 ;eeprom unsigned char eki=0;
                 ;eeprom unsigned char elc=120;
                 ;eeprom unsigned char elc1=0;
                 ;eeprom unsigned char evc=120;
                 ;eeprom unsigned char emax1=100;
                 ;
                 ;bit aktif=0,lock;
                 ;int rpwm,lpwm,max1,m,lc,vc,I,PV,error,lasterror,encomp,lc1,xcc;
                 ;unsigned char kp,kd,ki,pulsa,batas=100;
                 
                 	.DSEG
                 ;unsigned char timer[101],speed[101],speed1[101],count2,start,time[101],cacah,cc,plan[21],read[21];
                 ;unsigned char SP=0,mode,cut[101],cut1[101],counting,protec,del[101],tunda,modekanan;
                 ;unsigned char sensitive[14],in,adc,sam,samping,sam1,samping1,hight[14],low[14],scan,inv,invers;
                 ;unsigned int dep,depan,sen,sm;
                 ;int pass;
                 ;char buff[33],bufff[33];
                 ;int pilih_start=0;
                 ;int pilih_cp=0;
                 ;
                 ;void loading(){
                 ; 0000 004E void loading(){
                 
                 	.CSEG
                 _loading:
                 ; 0000 004F int load;
                 ; 0000 0050 for(load=0;load<=15;load++){
000283 940e 17d4 	CALL SUBOPT_0x0
                 ;	load -> R16,R17
                 _0x5:
                +
000285 3100     +CPI R16 , LOW ( 16 )
000286 e0e0     +LDI R30 , HIGH ( 16 )
000287 071e     +CPC R17 , R30
                 	__CPWRN 16,17,16
000288 f474      	BRGE _0x6
                 ; 0000 0051 lcd_gotoxy(load,1);
000289 930a      	ST   -Y,R16
00028a 940e 17d9 	CALL SUBOPT_0x1
                 ; 0000 0052 lcd_putchar(0x5f);delay_ms(80);
00028c 940e 17dd 	CALL SUBOPT_0x2
00028e 940e 17e1 	CALL SUBOPT_0x3
                 ; 0000 0053 lcd_putchar(0xff);delay_ms(80);
000290 940e 17e7 	CALL SUBOPT_0x4
000292 940e 17e1 	CALL SUBOPT_0x3
                 ; 0000 0054 }
                +
000294 5f0f     +SUBI R16 , LOW ( - 1 )
000295 4f1f     +SBCI R17 , HIGH ( - 1 )
                 	__ADDWRN 16,17,1
000296 cfee      	RJMP _0x5
                 _0x6:
                 ; 0000 0055 lcd_clear();
000297 940e 173d 	CALL _lcd_clear
                 ; 0000 0056 }
000299 c440      	RJMP _0x2080006
                 ;
                 ;void saved(){
                 ; 0000 0058 void saved(){
                 _saved:
                 ; 0000 0059  lcd_clear();
00029a 940e 17eb 	CALL SUBOPT_0x5
                 ; 0000 005A  lcd_gotoxy(0,0);
                 ; 0000 005B  lcd_putsf("DONE SAVE!");delay_ms(300);
                +
00029c e6ea     +LDI R30 , LOW ( 2 * _0x0 + ( 0 ) )
00029d e0f0     +LDI R31 , HIGH ( 2 * _0x0 + ( 0 ) )
                 	__POINTW1FN _0x0,0
00029e 940e 17f2 	CALL SUBOPT_0x6
0002a0 940e 17f6 	CALL SUBOPT_0x7
                 ; 0000 005C  lmp=1;
0002a2 9ac3      	SBI  0x18,3
                 ; 0000 005D  lcd_clear();
0002a3 940e 173d 	CALL _lcd_clear
                 ; 0000 005E }
0002a5 9508      	RET
                 ;
                 ;//-------------timer0 interrupt overflow--------//
                 ;interrupt [TIM0_OVF] void timer0_ovf_isr(void)
                 ; 0000 0062 {
                 _timer0_ovf_isr:
0002a6 93aa      	ST   -Y,R26
0002a7 93ea      	ST   -Y,R30
0002a8 93fa      	ST   -Y,R31
0002a9 b7ef      	IN   R30,SREG
0002aa 93ea      	ST   -Y,R30
                 ; 0000 0063 if(aktif==0&&cacah<timer[start]&&mode==1){
0002ab e0a0      	LDI  R26,0
0002ac fc20      	SBRC R2,0
0002ad e0a1      	LDI  R26,1
0002ae 30a0      	CPI  R26,LOW(0x0)
0002af f469      	BRNE _0xA
0002b0 940e 17fc 	CALL SUBOPT_0x8
0002b2 57e2      	SUBI R30,LOW(-_timer)
0002b3 4ffd      	SBCI R31,HIGH(-_timer)
0002b4 81e0      	LD   R30,Z
0002b5 91a0 0424 	LDS  R26,_cacah
0002b7 17ae      	CP   R26,R30
0002b8 f420      	BRSH _0xA
0002b9 91a0 0451 	LDS  R26,_mode
0002bb 30a1      	CPI  R26,LOW(0x1)
0002bc f009      	BREQ _0xB
                 _0xA:
0002bd c011      	RJMP _0x9
                 _0xB:
                 ; 0000 0064 if(++cc>=pulsa){
0002be 91a0 0425 	LDS  R26,_cc
0002c0 5faf      	SUBI R26,-LOW(1)
0002c1 93a0 0425 	STS  _cc,R26
0002c3 91e0 028c 	LDS  R30,_pulsa
0002c5 17ae      	CP   R26,R30
0002c6 f040      	BRLO _0xC
                 ; 0000 0065 cacah++;cc=0;}
0002c7 91e0 0424 	LDS  R30,_cacah
0002c9 5fef      	SUBI R30,-LOW(1)
0002ca 93e0 0424 	STS  _cacah,R30
0002cc e0e0      	LDI  R30,LOW(0)
0002cd 93e0 0425 	STS  _cc,R30
                 ; 0000 0066 }
                 _0xC:
                 ; 0000 0067 }
                 _0x9:
0002cf 91e9      	LD   R30,Y+
0002d0 bfef      	OUT  SREG,R30
0002d1 91f9      	LD   R31,Y+
0002d2 91e9      	LD   R30,Y+
0002d3 91a9      	LD   R26,Y+
0002d4 9518      	RETI
                 ;
                 ;void rumus_pid()
                 ; 0000 006A {
                 _rumus_pid:
                 ; 0000 006B if (error!=0){I=I+error;}
0002d5 940e 1800 	CALL SUBOPT_0x9
0002d7 9730      	SBIW R30,0
0002d8 f059      	BREQ _0xD
0002d9 940e 1800 	CALL SUBOPT_0x9
0002db 940e 1805 	CALL SUBOPT_0xA
0002dd 0fea      	ADD  R30,R26
0002de 1ffb      	ADC  R31,R27
0002df 93e0 027b 	STS  _I,R30
0002e1 93f0 027c 	STS  _I+1,R31
                 ; 0000 006C else{I=0;}
0002e3 c005      	RJMP _0xE
                 _0xD:
0002e4 e0e0      	LDI  R30,LOW(0)
0002e5 93e0 027b 	STS  _I,R30
0002e7 93e0 027c 	STS  _I+1,R30
                 _0xE:
                 ; 0000 006D rpwm=(int)((max1+(error*kp))+((error-lasterror)*kd)+((ki*I)/35)); //dibalik
0002e9 940e 180a 	CALL SUBOPT_0xB
0002eb 940e 180e 	CALL SUBOPT_0xC
0002ed 940e 1813 	CALL SUBOPT_0xD
                +
0002ef 0f6e     +ADD R22 , R30
0002f0 1f7f     +ADC R23 , R31
                 	__ADDWRR 22,23,30,31
0002f1 940e 1826 	CALL SUBOPT_0xE
0002f3 0fe6      	ADD  R30,R22
0002f4 1ff7      	ADC  R31,R23
0002f5 012f      	MOVW R4,R30
                 ; 0000 006E lpwm=(int)((max1+(-error*kp))-((error-lasterror)*kd)-((ki*I)/35)); //dibalik
0002f6 940e 1800 	CALL SUBOPT_0x9
0002f8 940e 1aa4 	CALL __ANEGW1
0002fa 01df      	MOVW R26,R30
0002fb 940e 180a 	CALL SUBOPT_0xB
0002fd 940e 1813 	CALL SUBOPT_0xD
                +
0002ff 1b6e     +SUB R22 , R30
000300 0b7f     +SBC R23 , R31
                 	__SUBWRR 22,23,30,31
000301 940e 1826 	CALL SUBOPT_0xE
000303 01db      	MOVW R26,R22
000304 1bae      	SUB  R26,R30
000305 0bbf      	SBC  R27,R31
000306 013d      	MOVW R6,R26
                 ; 0000 006F //sudah saya balik
                 ; 0000 0070 lasterror=error;
000307 940e 1800 	CALL SUBOPT_0x9
000309 93e0 0281 	STS  _lasterror,R30
00030b 93f0 0282 	STS  _lasterror+1,R31
                 ; 0000 0071 }
00030d 9508      	RET
                 ;//-------------global fungsi--------//
                 ;void scansensor();
                 ;//-------------fungsi pembacaan adc--------//
                 ;unsigned char read_adc(unsigned char adc_input)
                 ; 0000 0076 {
                 _read_adc:
                 ; 0000 0077 ADMUX=ADC_VREF_TYPE & 0xff;
                 ;	adc_input -> Y+0
00030e e2e0      	LDI  R30,LOW(32)
00030f b9e7      	OUT  0x7,R30
                 ; 0000 0078 ADMUX=adc_input | (ADC_VREF_TYPE & 0xff);
000310 81e8      	LD   R30,Y
000311 62e0      	ORI  R30,0x20
000312 b9e7      	OUT  0x7,R30
                 ; 0000 0079 delay_us(10);
                +
000313 e385     +LDI R24 , LOW ( 53 )
                +__DELAY_USB_LOOP :
000314 958a     +DEC R24
000315 f7f1     +BRNE __DELAY_USB_LOOP
                 	__DELAY_USB 53
                 ; 0000 007A ADCSRA|=0x40;
000316 9a36      	SBI  0x6,6
                 ; 0000 007B while ((ADCSRA & 0x10)==0);
                 _0xF:
000317 9b34      	SBIS 0x6,4
000318 cffe      	RJMP _0xF
                 ; 0000 007C ADCSRA|=0x10;
000319 9a34      	SBI  0x6,4
                 ; 0000 007D return ADCH;
00031a b1e5      	IN   R30,0x5
00031b 9621      	ADIW R28,1
00031c 9508      	RET
                 ; 0000 007E }
                 ;
                 ;//-------------fungsi motor controller--------//
                 ;void motor(int pwmkiri,int pwmkanan){
                 ; 0000 0081 void motor(int pwmkiri,int pwmkanan){
                 _motor:
                 ; 0000 0082 if (pwmkiri>255)pwmkiri=255;
                 ;	pwmkiri -> Y+2
                 ;	pwmkanan -> Y+0
00031d 81aa      	LDD  R26,Y+2
00031e 81bb      	LDD  R27,Y+2+1
00031f 30a0      	CPI  R26,LOW(0x100)
000320 e0e1      	LDI  R30,HIGH(0x100)
000321 07be      	CPC  R27,R30
000322 f024      	BRLT _0x12
000323 efef      	LDI  R30,LOW(255)
000324 e0f0      	LDI  R31,HIGH(255)
000325 83ea      	STD  Y+2,R30
000326 83fb      	STD  Y+2+1,R31
                 ; 0000 0083  if (pwmkiri<-255)pwmkiri=(-255);
                 _0x12:
000327 81aa      	LDD  R26,Y+2
000328 81bb      	LDD  R27,Y+2+1
000329 30a1      	CPI  R26,LOW(0xFF01)
00032a efef      	LDI  R30,HIGH(0xFF01)
00032b 07be      	CPC  R27,R30
00032c f424      	BRGE _0x13
00032d e0e1      	LDI  R30,LOW(65281)
00032e efff      	LDI  R31,HIGH(65281)
00032f 83ea      	STD  Y+2,R30
000330 83fb      	STD  Y+2+1,R31
                 ; 0000 0084  if (pwmkanan>255)pwmkanan=255;
                 _0x13:
000331 81a8      	LD   R26,Y
000332 81b9      	LDD  R27,Y+1
000333 30a0      	CPI  R26,LOW(0x100)
000334 e0e1      	LDI  R30,HIGH(0x100)
000335 07be      	CPC  R27,R30
000336 f024      	BRLT _0x14
000337 efef      	LDI  R30,LOW(255)
000338 e0f0      	LDI  R31,HIGH(255)
000339 83e8      	ST   Y,R30
00033a 83f9      	STD  Y+1,R31
                 ; 0000 0085  if (pwmkanan<-255)pwmkanan=(-255);
                 _0x14:
00033b 81a8      	LD   R26,Y
00033c 81b9      	LDD  R27,Y+1
00033d 30a1      	CPI  R26,LOW(0xFF01)
00033e efef      	LDI  R30,HIGH(0xFF01)
00033f 07be      	CPC  R27,R30
000340 f424      	BRGE _0x15
000341 e0e1      	LDI  R30,LOW(65281)
000342 efff      	LDI  R31,HIGH(65281)
000343 83e8      	ST   Y,R30
000344 83f9      	STD  Y+1,R31
                 ; 0000 0086 
                 ; 0000 0087  if (lpwm>255)lpwm=255;
                 _0x15:
000345 efef      	LDI  R30,LOW(255)
000346 e0f0      	LDI  R31,HIGH(255)
000347 15e6      	CP   R30,R6
000348 05f7      	CPC  R31,R7
000349 f40c      	BRGE _0x16
00034a 013f      	MOVW R6,R30
                 ; 0000 0088  if (lpwm<-255)lpwm=(-255);
                 _0x16:
00034b e0e1      	LDI  R30,LOW(65281)
00034c efff      	LDI  R31,HIGH(65281)
00034d 166e      	CP   R6,R30
00034e 067f      	CPC  R7,R31
00034f f40c      	BRGE _0x17
000350 013f      	MOVW R6,R30
                 ; 0000 0089  if (rpwm>255)rpwm=255;
                 _0x17:
000351 efef      	LDI  R30,LOW(255)
000352 e0f0      	LDI  R31,HIGH(255)
000353 15e4      	CP   R30,R4
000354 05f5      	CPC  R31,R5
000355 f40c      	BRGE _0x18
000356 012f      	MOVW R4,R30
                 ; 0000 008A  if (rpwm<-255)rpwm=(-255);
                 _0x18:
000357 e0e1      	LDI  R30,LOW(65281)
000358 efff      	LDI  R31,HIGH(65281)
000359 164e      	CP   R4,R30
00035a 065f      	CPC  R5,R31
00035b f40c      	BRGE _0x19
00035c 012f      	MOVW R4,R30
                 ; 0000 008B  if (pwmkanan<0){
                 _0x19:
00035d 81a9      	LDD  R26,Y+1
00035e 23aa      	TST  R26
00035f f43a      	BRPL _0x1A
                 ; 0000 008C  kadur=1;
000360 9a96      	SBI  0x12,6
                 ; 0000 008D  kaju=255+pwmkanan;
000361 81e8      	LD   R30,Y
000362 81f9      	LDD  R31,Y+1
000363 50e1      	SUBI R30,LOW(-255)
000364 4fff      	SBCI R31,HIGH(-255)
000365 bdfb      	OUT  0x2A+1,R31
000366 bdea      	OUT  0x2A,R30
                 ; 0000 008E  }
                 ; 0000 008F  if (pwmkiri<0){
                 _0x1A:
000367 81ab      	LDD  R26,Y+3
000368 23aa      	TST  R26
000369 f43a      	BRPL _0x1D
                 ; 0000 0090  kidur=1;
00036a 9a93      	SBI  0x12,3
                 ; 0000 0091  kiju=255+pwmkiri;
00036b 81ea      	LDD  R30,Y+2
00036c 81fb      	LDD  R31,Y+2+1
00036d 50e1      	SUBI R30,LOW(-255)
00036e 4fff      	SBCI R31,HIGH(-255)
00036f bdf9      	OUT  0x28+1,R31
000370 bde8      	OUT  0x28,R30
                 ; 0000 0092  }
                 ; 0000 0093  if (pwmkanan>=0){
                 _0x1D:
000371 81a9      	LDD  R26,Y+1
000372 23aa      	TST  R26
000373 f02a      	BRMI _0x20
                 ; 0000 0094  kadur=0;
000374 9896      	CBI  0x12,6
                 ; 0000 0095  kaju=pwmkanan;
000375 81e8      	LD   R30,Y
000376 81f9      	LDD  R31,Y+1
000377 bdfb      	OUT  0x2A+1,R31
000378 bdea      	OUT  0x2A,R30
                 ; 0000 0096  }
                 ; 0000 0097  if (pwmkiri>=0){
                 _0x20:
000379 81ab      	LDD  R26,Y+3
00037a 23aa      	TST  R26
00037b f02a      	BRMI _0x23
                 ; 0000 0098  kidur=0;
00037c 9893      	CBI  0x12,3
                 ; 0000 0099  kiju=pwmkiri;
00037d 81ea      	LDD  R30,Y+2
00037e 81fb      	LDD  R31,Y+2+1
00037f bdf9      	OUT  0x28+1,R31
000380 bde8      	OUT  0x28,R30
                 ; 0000 009A  }
                 ; 0000 009B }
                 _0x23:
000381 c03f      	RJMP _0x2080009
                 ;
                 ;//-------------fungsi enable pwm internal--------//
                 ;void pwm_on()
                 ; 0000 009F {
                 _pwm_on:
                 ; 0000 00A0 TCCR1A=0xA1;
000382 eae1      	LDI  R30,LOW(161)
000383 bdef      	OUT  0x2F,R30
                 ; 0000 00A1 TCCR1B=0x0B;
000384 e0eb      	LDI  R30,LOW(11)
000385 c002      	RJMP _0x208000B
                 ; 0000 00A2 }
                 ;
                 ;//-------------fungsi disable pwm internal--------//
                 ;void pwm_off()
                 ; 0000 00A6 {
                 _pwm_off:
                 ; 0000 00A7 TCCR1A=0x00;
000386 e0e0      	LDI  R30,LOW(0)
000387 bdef      	OUT  0x2F,R30
                 ; 0000 00A8 TCCR1B=0x00;
                 _0x208000B:
000388 bdee      	OUT  0x2E,R30
                 ; 0000 00A9 }
000389 9508      	RET
                 ;
                 ;//-------------fungsi stop motor--------//
                 ;void stop(){
                 ; 0000 00AC void stop(){
                 _stop:
                 ; 0000 00AD   motor(0,0);}
00038a 940e 1832 	CALL SUBOPT_0xF
00038c c004      	RJMP _0x208000A
                 ;
                 ;//-------------fungsi mundur motor--------//
                 ;void mundur(){
                 ; 0000 00B0 void mundur(){
                 _mundur:
                 ; 0000 00B1 motor(-255,-255);}
00038d e0e1      	LDI  R30,LOW(65281)
00038e efff      	LDI  R31,HIGH(65281)
00038f 93fa      	ST   -Y,R31
000390 93ea      	ST   -Y,R30
                 _0x208000A:
000391 93fa      	ST   -Y,R31
000392 93ea      	ST   -Y,R30
000393 df89      	RCALL _motor
000394 9508      	RET
                 ;
                 ;//-------------fungsi belok kanan lancip--------//
                 ;void kananlancip()
                 ; 0000 00B5 {int cp1,cp2;
                 _kananlancip:
                 ; 0000 00B6         cp1=(255-lc)+(-255);  cp2=0+lc;
000395 940e 1837 	CALL SUBOPT_0x10
                 ;	cp1 -> R16,R17
                 ;	cp2 -> R18,R19
                 ; 0000 00B7         motor(cp2,cp1);
000397 933a      	ST   -Y,R19
000398 932a      	ST   -Y,R18
000399 931a      	ST   -Y,R17
00039a 930a      	ST   -Y,R16
00039b df81      	RCALL _motor
                 ; 0000 00B8 }
00039c c022      	RJMP _0x2080008
                 ;
                 ;//-------------fungsi belok kiri lancip--------//
                 ;void kirilancip()
                 ; 0000 00BC {       int cp1,cp2;
                 _kirilancip:
                 ; 0000 00BD         cp1=(255-lc)+(-255);  cp2=0+lc;
00039d 940e 1837 	CALL SUBOPT_0x10
                 ;	cp1 -> R16,R17
                 ;	cp2 -> R18,R19
                 ; 0000 00BE         motor(cp1,cp2);
00039f 931a      	ST   -Y,R17
0003a0 930a      	ST   -Y,R16
0003a1 933a      	ST   -Y,R19
0003a2 932a      	ST   -Y,R18
0003a3 df79      	RCALL _motor
                 ; 0000 00BF }
0003a4 c01a      	RJMP _0x2080008
                 ;
                 ;//-------------fungsi belok kanan counter--------//
                 ;void kanan()
                 ; 0000 00C3 {
                 _kanan:
                 ; 0000 00C4         int cp1,cp2;
                 ; 0000 00C5         lmp=1;
0003a5 940e 1b17 	CALL __SAVELOCR4
                 ;	cp1 -> R16,R17
                 ;	cp2 -> R18,R19
0003a7 9ac3      	SBI  0x18,3
                 ; 0000 00C6         tunda=del[start];
0003a8 940e 17fc 	CALL SUBOPT_0x8
0003aa 940e 1844 	CALL SUBOPT_0x11
                 ; 0000 00C7         cp1=(255-vc)+(-255);  cp2=0+lc;
                 ; 0000 00C8         motor(cp2,cp1);
0003ac 933a      	ST   -Y,R19
0003ad 932a      	ST   -Y,R18
0003ae 931a      	ST   -Y,R17
0003af 930a      	ST   -Y,R16
0003b0 c00b      	RJMP _0x2080007
                 ; 0000 00C9         delay_ms(tunda);
                 ; 0000 00CA }
                 ;
                 ;//-------------fungsi belok kiri counter--------//
                 ;void kiri()
                 ; 0000 00CE {
                 _kiri:
                 ; 0000 00CF         int cp1,cp2;
                 ; 0000 00D0         lmp=1;
0003b1 940e 1b17 	CALL __SAVELOCR4
                 ;	cp1 -> R16,R17
                 ;	cp2 -> R18,R19
0003b3 9ac3      	SBI  0x18,3
                 ; 0000 00D1         tunda=del[start];
0003b4 940e 17fc 	CALL SUBOPT_0x8
0003b6 940e 1844 	CALL SUBOPT_0x11
                 ; 0000 00D2         cp1=(255-vc)+(-255);  cp2=0+lc;
                 ; 0000 00D3         motor(cp1,cp2);
0003b8 931a      	ST   -Y,R17
0003b9 930a      	ST   -Y,R16
0003ba 933a      	ST   -Y,R19
0003bb 932a      	ST   -Y,R18
                 _0x2080007:
0003bc df60      	RCALL _motor
                 ; 0000 00D4         delay_ms(tunda);
0003bd 940e 1858 	CALL SUBOPT_0x12
                 ; 0000 00D5 }
                 _0x2080008:
0003bf 940e 1b1e 	CALL __LOADLOCR4
                 _0x2080009:
0003c1 9624      	ADIW R28,4
0003c2 9508      	RET
                 ;
                 ;//-------------fungsi kalibrasi sensor--------//
                 ;void autoscan()
                 ; 0000 00D9 {
                 _autoscan:
                 ; 0000 00DA int a,b;
                 ; 0000 00DB unsigned char mata;
                 ; 0000 00DC if(m==1){pwm_on();}
0003c3 940e 1b15 	CALL __SAVELOCR6
                 ;	a -> R16,R17
                 ;	b -> R18,R19
                 ;	mata -> R21
0003c5 e0e1      	LDI  R30,LOW(1)
0003c6 e0f0      	LDI  R31,HIGH(1)
0003c7 15ea      	CP   R30,R10
0003c8 05fb      	CPC  R31,R11
0003c9 f409      	BRNE _0x2A
0003ca dfb7      	RCALL _pwm_on
                 ; 0000 00DD lcd_clear();
                 _0x2A:
0003cb 940e 17eb 	CALL SUBOPT_0x5
                 ; 0000 00DE lcd_gotoxy(0,0);
                 ; 0000 00DF lcd_putsf("     READY TO     ");
                +
0003cd e7e5     +LDI R30 , LOW ( 2 * _0x0 + ( 11 ) )
0003ce e0f0     +LDI R31 , HIGH ( 2 * _0x0 + ( 11 ) )
                 	__POINTW1FN _0x0,11
0003cf 940e 17f2 	CALL SUBOPT_0x6
                 ; 0000 00E0 lcd_gotoxy(0,1);
0003d1 940e 185f 	CALL SUBOPT_0x13
                 ; 0000 00E1 lcd_putsf("   CALIBRATION  ");
                +
0003d3 e8e8     +LDI R30 , LOW ( 2 * _0x0 + ( 30 ) )
0003d4 e0f0     +LDI R31 , HIGH ( 2 * _0x0 + ( 30 ) )
                 	__POINTW1FN _0x0,30
0003d5 940e 17f2 	CALL SUBOPT_0x6
                 ; 0000 00E2 delay_ms(500);
0003d7 940e 1862 	CALL SUBOPT_0x14
                 ; 0000 00E3 lcd_clear();
0003d9 940e 173d 	CALL _lcd_clear
                 ; 0000 00E4 for(a=0;a<=6;a++){
                +
0003db e000     +LDI R16 , LOW ( 0 )
0003dc e010     +LDI R17 , HIGH ( 0 )
                 	__GETWRN 16,17,0
                 _0x2C:
                +
0003dd 3007     +CPI R16 , LOW ( 7 )
0003de e0e0     +LDI R30 , HIGH ( 7 )
0003df 071e     +CPC R17 , R30
                 	__CPWRN 16,17,7
0003e0 f4ac      	BRGE _0x2D
                 ; 0000 00E5         sensitive[a]=0;
0003e1 e8a5      	LDI  R26,LOW(_sensitive)
0003e2 e0b5      	LDI  R27,HIGH(_sensitive)
0003e3 0fa0      	ADD  R26,R16
0003e4 1fb1      	ADC  R27,R17
0003e5 e0e0      	LDI  R30,LOW(0)
0003e6 93ec      	ST   X,R30
                 ; 0000 00E6         low[a]=255;
0003e7 eaa7      	LDI  R26,LOW(_low)
0003e8 e0b5      	LDI  R27,HIGH(_low)
0003e9 0fa0      	ADD  R26,R16
0003ea 1fb1      	ADC  R27,R17
0003eb efef      	LDI  R30,LOW(255)
0003ec 93ec      	ST   X,R30
                 ; 0000 00E7         hight[a]=0;
0003ed e9a9      	LDI  R26,LOW(_hight)
0003ee e0b5      	LDI  R27,HIGH(_hight)
0003ef 0fa0      	ADD  R26,R16
0003f0 1fb1      	ADC  R27,R17
0003f1 e0e0      	LDI  R30,LOW(0)
0003f2 93ec      	ST   X,R30
                 ; 0000 00E8         }
                +
0003f3 5f0f     +SUBI R16 , LOW ( - 1 )
0003f4 4f1f     +SBCI R17 , HIGH ( - 1 )
                 	__ADDWRN 16,17,1
0003f5 cfe7      	RJMP _0x2C
                 _0x2D:
                 ; 0000 00E9 for(a=0;a<1000;a++){
                +
0003f6 e000     +LDI R16 , LOW ( 0 )
0003f7 e010     +LDI R17 , HIGH ( 0 )
                 	__GETWRN 16,17,0
                 _0x2F:
                +
0003f8 3e08     +CPI R16 , LOW ( 1000 )
0003f9 e0e3     +LDI R30 , HIGH ( 1000 )
0003fa 071e     +CPC R17 , R30
                 	__CPWRN 16,17,1000
0003fb f014      	BRLT PC+3
0003fc 940c 046c 	JMP _0x30
                 ; 0000 00EA if(m==1){
0003fe e0e1      	LDI  R30,LOW(1)
0003ff e0f0      	LDI  R31,HIGH(1)
000400 15ea      	CP   R30,R10
000401 05fb      	CPC  R31,R11
000402 f449      	BRNE _0x31
                 ; 0000 00EB motor(-128,128);
000403 e8e0      	LDI  R30,LOW(65408)
000404 efff      	LDI  R31,HIGH(65408)
000405 93fa      	ST   -Y,R31
000406 93ea      	ST   -Y,R30
000407 e8e0      	LDI  R30,LOW(128)
000408 e0f0      	LDI  R31,HIGH(128)
000409 93fa      	ST   -Y,R31
00040a 93ea      	ST   -Y,R30
00040b df11      	RCALL _motor
                 ; 0000 00EC }
                 ; 0000 00ED if(m==0){stop();
                 _0x31:
00040c 2c0a      	MOV  R0,R10
00040d 280b      	OR   R0,R11
00040e f409      	BRNE _0x32
00040f df7a      	RCALL _stop
                 ; 0000 00EE }
                 ; 0000 00EF lcd_gotoxy(0,0);
                 _0x32:
000410 940e 1868 	CALL SUBOPT_0x15
                 ; 0000 00F0 lcd_putsf("Scaning sensor");
                +
000412 e9e9     +LDI R30 , LOW ( 2 * _0x0 + ( 47 ) )
000413 e0f0     +LDI R31 , HIGH ( 2 * _0x0 + ( 47 ) )
                 	__POINTW1FN _0x0,47
000414 940e 17f2 	CALL SUBOPT_0x6
                 ; 0000 00F1 lcd_gotoxy(0,1);
000416 940e 185f 	CALL SUBOPT_0x13
                 ; 0000 00F2 sprintf(buff, "[ %d ][%i]",mata,a);
000418 940e 186d 	CALL SUBOPT_0x16
                +
00041a eae8     +LDI R30 , LOW ( 2 * _0x0 + ( 62 ) )
00041b e0f0     +LDI R31 , HIGH ( 2 * _0x0 + ( 62 ) )
                 	__POINTW1FN _0x0,62
00041c 93fa      	ST   -Y,R31
00041d 93ea      	ST   -Y,R30
00041e 2fe5      	MOV  R30,R21
00041f 940e 1872 	CALL SUBOPT_0x17
000421 940e 1878 	CALL SUBOPT_0x18
000423 940e 187e 	CALL SUBOPT_0x19
                 ; 0000 00F3 lcd_puts(buff);
000425 940e 186d 	CALL SUBOPT_0x16
000427 940e 176d 	CALL _lcd_puts
                 ; 0000 00F4 L=1;
000429 9aaf      	SBI  0x15,7
                 ; 0000 00F5 R=0;
00042a 98ae      	CBI  0x15,6
                 ; 0000 00F6 for(b=0;b<=6;b++){
                +
00042b e020     +LDI R18 , LOW ( 0 )
00042c e030     +LDI R19 , HIGH ( 0 )
                 	__GETWRN 18,19,0
                 _0x38:
                +
00042d 3027     +CPI R18 , LOW ( 7 )
00042e e0e0     +LDI R30 , HIGH ( 7 )
00042f 073e     +CPC R19 , R30
                 	__CPWRN 18,19,7
000430 f4bc      	BRGE _0x39
                 ; 0000 00F7 mata=read_adc(b+1);
000431 2fe2      	MOV  R30,R18
000432 5fef      	SUBI R30,-LOW(1)
000433 940e 1883 	CALL SUBOPT_0x1A
                 ; 0000 00F8 if(mata<low[b]){
000435 f420      	BRSH _0x3A
                 ; 0000 00F9 low[b]=mata;
000436 01f9      	MOVW R30,R18
000437 55e9      	SUBI R30,LOW(-_low)
000438 4ffa      	SBCI R31,HIGH(-_low)
000439 8350      	ST   Z,R21
                 ; 0000 00FA }
                 ; 0000 00FB if(mata>hight[b]){
                 _0x3A:
00043a 940e 188e 	CALL SUBOPT_0x1B
00043c f420      	BRSH _0x3B
                 ; 0000 00FC hight[b]=mata;
00043d 01f9      	MOVW R30,R18
00043e 56e7      	SUBI R30,LOW(-_hight)
00043f 4ffa      	SBCI R31,HIGH(-_hight)
000440 8350      	ST   Z,R21
                 ; 0000 00FD }
                 ; 0000 00FE delay_us(200);
                 _0x3B:
                +
000441 e280     +LDI R24 , LOW ( 800 )
000442 e093     +LDI R25 , HIGH ( 800 )
                +__DELAY_USW_LOOP :
000443 9701     +SBIW R24 , 1
000444 f7f1     +BRNE __DELAY_USW_LOOP
                 	__DELAY_USW 800
                 ; 0000 00FF }
                +
000445 5f2f     +SUBI R18 , LOW ( - 1 )
000446 4f3f     +SBCI R19 , HIGH ( - 1 )
                 	__ADDWRN 18,19,1
000447 cfe5      	RJMP _0x38
                 _0x39:
                 ; 0000 0100 L=0;
000448 98af      	CBI  0x15,7
                 ; 0000 0101 R=1;
000449 9aae      	SBI  0x15,6
                 ; 0000 0102 for(b=7;b<=13;b++){
                +
00044a e027     +LDI R18 , LOW ( 7 )
00044b e030     +LDI R19 , HIGH ( 7 )
                 	__GETWRN 18,19,7
                 _0x41:
                +
00044c 302e     +CPI R18 , LOW ( 14 )
00044d e0e0     +LDI R30 , HIGH ( 14 )
00044e 073e     +CPC R19 , R30
                 	__CPWRN 18,19,14
00044f f4bc      	BRGE _0x42
                 ; 0000 0103 mata=read_adc(b-6);
000450 01f9      	MOVW R30,R18
000451 9736      	SBIW R30,6
000452 940e 1883 	CALL SUBOPT_0x1A
                 ; 0000 0104 if(mata<low[b]){
000454 f420      	BRSH _0x43
                 ; 0000 0105 low[b]=mata;
000455 01f9      	MOVW R30,R18
000456 55e9      	SUBI R30,LOW(-_low)
000457 4ffa      	SBCI R31,HIGH(-_low)
000458 8350      	ST   Z,R21
                 ; 0000 0106 }
                 ; 0000 0107 if(mata>hight[b]){
                 _0x43:
000459 940e 188e 	CALL SUBOPT_0x1B
00045b f420      	BRSH _0x44
                 ; 0000 0108 hight[b]=mata;
00045c 01f9      	MOVW R30,R18
00045d 56e7      	SUBI R30,LOW(-_hight)
00045e 4ffa      	SBCI R31,HIGH(-_hight)
00045f 8350      	ST   Z,R21
                 ; 0000 0109 }
                 ; 0000 010A delay_us(200);
                 _0x44:
                +
000460 e280     +LDI R24 , LOW ( 800 )
000461 e093     +LDI R25 , HIGH ( 800 )
                +__DELAY_USW_LOOP :
000462 9701     +SBIW R24 , 1
000463 f7f1     +BRNE __DELAY_USW_LOOP
                 	__DELAY_USW 800
                 ; 0000 010B }
                +
000464 5f2f     +SUBI R18 , LOW ( - 1 )
000465 4f3f     +SBCI R19 , HIGH ( - 1 )
                 	__ADDWRN 18,19,1
000466 cfe5      	RJMP _0x41
                 _0x42:
                 ; 0000 010C L=0; R=0;
000467 98af      	CBI  0x15,7
000468 98ae      	CBI  0x15,6
                 ; 0000 010D }
                +
000469 5f0f     +SUBI R16 , LOW ( - 1 )
00046a 4f1f     +SBCI R17 , HIGH ( - 1 )
                 	__ADDWRN 16,17,1
00046b cf8c      	RJMP _0x2F
                 _0x30:
                 ; 0000 010E for(b=0;b<13;b++){
                +
00046c e020     +LDI R18 , LOW ( 0 )
00046d e030     +LDI R19 , HIGH ( 0 )
                 	__GETWRN 18,19,0
                 _0x4A:
                +
00046e 302d     +CPI R18 , LOW ( 13 )
00046f e0e0     +LDI R30 , HIGH ( 13 )
000470 073e     +CPC R19 , R30
                 	__CPWRN 18,19,13
000471 f51c      	BRGE _0x4B
                 ; 0000 010F sensitive[b]=((hight[b]-low[b])/2)+low[b];
000472 01f9      	MOVW R30,R18
000473 57eb      	SUBI R30,LOW(-_sensitive)
000474 4ffa      	SBCI R31,HIGH(-_sensitive)
000475 01bf      	MOVW R22,R30
000476 e9a9      	LDI  R26,LOW(_hight)
000477 e0b5      	LDI  R27,HIGH(_hight)
000478 0fa2      	ADD  R26,R18
000479 1fb3      	ADC  R27,R19
00047a 900c      	LD   R0,X
00047b 2411      	CLR  R1
00047c eaa7      	LDI  R26,LOW(_low)
00047d e0b5      	LDI  R27,HIGH(_low)
00047e 0fa2      	ADD  R26,R18
00047f 1fb3      	ADC  R27,R19
000480 940e 1895 	CALL SUBOPT_0x1C
000482 01d0      	MOVW R26,R0
000483 1bae      	SUB  R26,R30
000484 0bbf      	SBC  R27,R31
000485 e0e2      	LDI  R30,LOW(2)
000486 e0f0      	LDI  R31,HIGH(2)
000487 940e 1acd 	CALL __DIVW21
000489 2e0e      	MOV  R0,R30
00048a eaa7      	LDI  R26,LOW(_low)
00048b e0b5      	LDI  R27,HIGH(_low)
00048c 0fa2      	ADD  R26,R18
00048d 1fb3      	ADC  R27,R19
00048e 91ec      	LD   R30,X
00048f 0de0      	ADD  R30,R0
000490 01db      	MOVW R26,R22
000491 93ec      	ST   X,R30
                 ; 0000 0110 };
                +
000492 5f2f     +SUBI R18 , LOW ( - 1 )
000493 4f3f     +SBCI R19 , HIGH ( - 1 )
                 	__ADDWRN 18,19,1
000494 cfd9      	RJMP _0x4A
                 _0x4B:
                 ; 0000 0111 lcd_clear();
000495 940e 17eb 	CALL SUBOPT_0x5
                 ; 0000 0112 lcd_gotoxy(0,0);
                 ; 0000 0113 pwm_off();
000497 940e 1898 	CALL SUBOPT_0x1D
                 ; 0000 0114 stop();
                 ; 0000 0115 lmp=1;
000499 9ac3      	SBI  0x18,3
                 ; 0000 0116 lcd_putsf("SAVE DATA...");
                +
00049a ebe3     +LDI R30 , LOW ( 2 * _0x0 + ( 73 ) )
00049b e0f0     +LDI R31 , HIGH ( 2 * _0x0 + ( 73 ) )
                 	__POINTW1FN _0x0,73
00049c 940e 17f2 	CALL SUBOPT_0x6
                 ; 0000 0117 delay_ms(300);
00049e 940e 17f6 	CALL SUBOPT_0x7
                 ; 0000 0118 for(b=0;b<13;b++){
                +
0004a0 e020     +LDI R18 , LOW ( 0 )
0004a1 e030     +LDI R19 , HIGH ( 0 )
                 	__GETWRN 18,19,0
                 _0x4F:
                +
0004a2 302d     +CPI R18 , LOW ( 13 )
0004a3 e0e0     +LDI R30 , HIGH ( 13 )
0004a4 073e     +CPC R19 , R30
                 	__CPWRN 18,19,13
0004a5 f47c      	BRGE _0x50
                 ; 0000 0119 esensitive[b]=sensitive[b];
0004a6 01f9      	MOVW R30,R18
0004a7 50e0      	SUBI R30,LOW(-_esensitive)
0004a8 40f0      	SBCI R31,HIGH(-_esensitive)
0004a9 010f      	MOVW R0,R30
0004aa e8a5      	LDI  R26,LOW(_sensitive)
0004ab e0b5      	LDI  R27,HIGH(_sensitive)
0004ac 0fa2      	ADD  R26,R18
0004ad 1fb3      	ADC  R27,R19
0004ae 91ec      	LD   R30,X
0004af 01d0      	MOVW R26,R0
0004b0 940e 1b00 	CALL __EEPROMWRB
                 ; 0000 011A }
                +
0004b2 5f2f     +SUBI R18 , LOW ( - 1 )
0004b3 4f3f     +SBCI R19 , HIGH ( - 1 )
                 	__ADDWRN 18,19,1
0004b4 cfed      	RJMP _0x4F
                 _0x50:
                 ; 0000 011B loading();
0004b5 ddcd      	RCALL _loading
                 ; 0000 011C lcd_gotoxy(0,1);
0004b6 940e 185f 	CALL SUBOPT_0x13
                 ; 0000 011D lcd_putsf("DONE!");
                +
0004b8 ece0     +LDI R30 , LOW ( 2 * _0x0 + ( 86 ) )
0004b9 e0f0     +LDI R31 , HIGH ( 2 * _0x0 + ( 86 ) )
                 	__POINTW1FN _0x0,86
0004ba 940e 17f2 	CALL SUBOPT_0x6
                 ; 0000 011E delay_ms(300);lmp=1;
0004bc 940e 17f6 	CALL SUBOPT_0x7
0004be 9ac3      	SBI  0x18,3
                 ; 0000 011F lcd_clear();
0004bf 940e 173d 	CALL _lcd_clear
                 ; 0000 0120 }
0004c1 940e 1b1c 	CALL __LOADLOCR6
0004c3 9626      	ADIW R28,6
0004c4 9508      	RET
                 ;
                 ;//-------------fungsi seting PID--------//
                 ;void pid()
                 ; 0000 0124 {
                 _pid:
                 ; 0000 0125 int i;
                 ; 0000 0126 i=0;
0004c5 940e 17d4 	CALL SUBOPT_0x0
                 ;	i -> R16,R17
                 ; 0000 0127 while(1){
                 _0x53:
                 ; 0000 0128 if(!s1||!s2||!s3||!s4||!s5){led=0;}
0004c7 9b98      	SBIS 0x13,0
0004c8 c008      	RJMP _0x57
0004c9 9b9a      	SBIS 0x13,2
0004ca c006      	RJMP _0x57
0004cb 9b9b      	SBIS 0x13,3
0004cc c004      	RJMP _0x57
0004cd 9b9c      	SBIS 0x13,4
0004ce c002      	RJMP _0x57
0004cf 9999      	SBIC 0x13,1
0004d0 c002      	RJMP _0x56
                 _0x57:
0004d1 9897      	CBI  0x12,7
                 ; 0000 0129 else{led=1;}
0004d2 c001      	RJMP _0x5B
                 _0x56:
0004d3 9a97      	SBI  0x12,7
                 _0x5B:
                 ; 0000 012A lmp=1;
0004d4 9ac3      	SBI  0x18,3
                 ; 0000 012B if (!s5){i=i-1;}
0004d5 9999      	SBIC 0x13,1
0004d6 c002      	RJMP _0x60
                +
0004d7 5001     +SUBI R16 , LOW ( 1 )
0004d8 4010     +SBCI R17 , HIGH ( 1 )
                 	__SUBWRN 16,17,1
                 ; 0000 012C if (i==(-1)){i=2;}
                 _0x60:
0004d9 efef      	LDI  R30,LOW(65535)
0004da efff      	LDI  R31,HIGH(65535)
0004db 17e0      	CP   R30,R16
0004dc 07f1      	CPC  R31,R17
0004dd f411      	BRNE _0x61
                +
0004de e002     +LDI R16 , LOW ( 2 )
0004df e010     +LDI R17 , HIGH ( 2 )
                 	__GETWRN 16,17,2
                 ; 0000 012D if (!s1){i=i+1;}
                 _0x61:
0004e0 9998      	SBIC 0x13,0
0004e1 c002      	RJMP _0x62
                +
0004e2 5f0f     +SUBI R16 , LOW ( - 1 )
0004e3 4f1f     +SBCI R17 , HIGH ( - 1 )
                 	__ADDWRN 16,17,1
                 ; 0000 012E if (i==3){i=0;}
                 _0x62:
0004e4 e0e3      	LDI  R30,LOW(3)
0004e5 e0f0      	LDI  R31,HIGH(3)
0004e6 17e0      	CP   R30,R16
0004e7 07f1      	CPC  R31,R17
0004e8 f411      	BRNE _0x63
                +
0004e9 e000     +LDI R16 , LOW ( 0 )
0004ea e010     +LDI R17 , HIGH ( 0 )
                 	__GETWRN 16,17,0
                 ; 0000 012F                 if(i==0){
                 _0x63:
0004eb 2e00      	MOV  R0,R16
0004ec 2a01      	OR   R0,R17
0004ed f571      	BRNE _0x64
                 ; 0000 0130                         lcd_gotoxy(0,0);
0004ee 940e 1868 	CALL SUBOPT_0x15
                 ; 0000 0131                         lcd_putsf("Proporsional     ");
                +
0004f0 ece6     +LDI R30 , LOW ( 2 * _0x0 + ( 92 ) )
0004f1 e0f0     +LDI R31 , HIGH ( 2 * _0x0 + ( 92 ) )
                 	__POINTW1FN _0x0,92
0004f2 940e 17f2 	CALL SUBOPT_0x6
                 ; 0000 0132                         sprintf(buff,"Kp=%03d ", kp);
0004f4 940e 186d 	CALL SUBOPT_0x16
                +
0004f6 ede8     +LDI R30 , LOW ( 2 * _0x0 + ( 110 ) )
0004f7 e0f0     +LDI R31 , HIGH ( 2 * _0x0 + ( 110 ) )
                 	__POINTW1FN _0x0,110
0004f8 93fa      	ST   -Y,R31
0004f9 93ea      	ST   -Y,R30
0004fa 91e0 0289 	LDS  R30,_kp
0004fc 940e 1872 	CALL SUBOPT_0x17
0004fe 940e 189c 	CALL SUBOPT_0x1E
                 ; 0000 0133                         lcd_gotoxy(0,1);
                 ; 0000 0134                         lcd_puts(buff);
000500 940e 186d 	CALL SUBOPT_0x16
000502 940e 176d 	CALL _lcd_puts
                 ; 0000 0135                         if(!s2){kp=kp+1;if (kp>255){kp=0;}}
000504 999a      	SBIC 0x13,2
000505 c00d      	RJMP _0x65
000506 91e0 0289 	LDS  R30,_kp
000508 5fef      	SUBI R30,-LOW(1)
000509 93e0 0289 	STS  _kp,R30
00050b 91a0 0289 	LDS  R26,_kp
00050d efef      	LDI  R30,LOW(255)
00050e 17ea      	CP   R30,R26
00050f f418      	BRSH _0x66
000510 e0e0      	LDI  R30,LOW(0)
000511 93e0 0289 	STS  _kp,R30
                 _0x66:
                 ; 0000 0136                         if(!s3){kp=kp-1;if (kp<0){kp=255;}}
                 _0x65:
000513 999b      	SBIC 0x13,3
000514 c007      	RJMP _0x67
000515 940e 180a 	CALL SUBOPT_0xB
000517 9731      	SBIW R30,1
000518 93e0 0289 	STS  _kp,R30
00051a 91a0 0289 	LDS  R26,_kp
                 ; 0000 0137                         }
                 _0x67:
                 ; 0000 0138                 if(i==1){
                 _0x64:
00051c 940e 18a1 	CALL SUBOPT_0x1F
00051e f579      	BRNE _0x69
                 ; 0000 0139                         lcd_gotoxy(0,0);
00051f 940e 1868 	CALL SUBOPT_0x15
                 ; 0000 013A                         lcd_putsf("Integratif ");
                +
000521 eee1     +LDI R30 , LOW ( 2 * _0x0 + ( 119 ) )
000522 e0f0     +LDI R31 , HIGH ( 2 * _0x0 + ( 119 ) )
                 	__POINTW1FN _0x0,119
000523 940e 17f2 	CALL SUBOPT_0x6
                 ; 0000 013B                         sprintf(buff,"Ki=%03d ", ki);
000525 940e 186d 	CALL SUBOPT_0x16
                +
000527 eeed     +LDI R30 , LOW ( 2 * _0x0 + ( 131 ) )
000528 e0f0     +LDI R31 , HIGH ( 2 * _0x0 + ( 131 ) )
                 	__POINTW1FN _0x0,131
000529 93fa      	ST   -Y,R31
00052a 93ea      	ST   -Y,R30
00052b 91e0 028b 	LDS  R30,_ki
00052d 940e 1872 	CALL SUBOPT_0x17
00052f 940e 189c 	CALL SUBOPT_0x1E
                 ; 0000 013C                         lcd_gotoxy(0,1);
                 ; 0000 013D                         lcd_puts(buff);
000531 940e 186d 	CALL SUBOPT_0x16
000533 940e 176d 	CALL _lcd_puts
                 ; 0000 013E                         if(!s2){ki=ki+1;if(ki>255){ki=0;}}
000535 999a      	SBIC 0x13,2
000536 c00d      	RJMP _0x6A
000537 91e0 028b 	LDS  R30,_ki
000539 5fef      	SUBI R30,-LOW(1)
00053a 93e0 028b 	STS  _ki,R30
00053c 91a0 028b 	LDS  R26,_ki
00053e efef      	LDI  R30,LOW(255)
00053f 17ea      	CP   R30,R26
000540 f418      	BRSH _0x6B
000541 e0e0      	LDI  R30,LOW(0)
000542 93e0 028b 	STS  _ki,R30
                 _0x6B:
                 ; 0000 013F                         if(!s3){ ki=ki-1;if (ki<0){ki=255;}}
                 _0x6A:
000544 999b      	SBIC 0x13,3
000545 c008      	RJMP _0x6C
000546 91e0 028b 	LDS  R30,_ki
000548 940e 18a6 	CALL SUBOPT_0x20
00054a 93e0 028b 	STS  _ki,R30
00054c 91a0 028b 	LDS  R26,_ki
                 ; 0000 0140                         }
                 _0x6C:
                 ; 0000 0141                 if(i==2){
                 _0x69:
00054e 940e 18a9 	CALL SUBOPT_0x21
000550 f579      	BRNE _0x6E
                 ; 0000 0142                         lcd_gotoxy(0,0);
000551 940e 1868 	CALL SUBOPT_0x15
                 ; 0000 0143                         lcd_putsf("Derevatif    ");
                +
000553 efe6     +LDI R30 , LOW ( 2 * _0x0 + ( 140 ) )
000554 e0f0     +LDI R31 , HIGH ( 2 * _0x0 + ( 140 ) )
                 	__POINTW1FN _0x0,140
000555 940e 17f2 	CALL SUBOPT_0x6
                 ; 0000 0144                         sprintf(buff,"Kd=%03d ", kd);
000557 940e 186d 	CALL SUBOPT_0x16
                +
000559 e0e4     +LDI R30 , LOW ( 2 * _0x0 + ( 154 ) )
00055a e0f1     +LDI R31 , HIGH ( 2 * _0x0 + ( 154 ) )
                 	__POINTW1FN _0x0,154
00055b 93fa      	ST   -Y,R31
00055c 93ea      	ST   -Y,R30
00055d 91e0 028a 	LDS  R30,_kd
00055f 940e 1872 	CALL SUBOPT_0x17
000561 940e 189c 	CALL SUBOPT_0x1E
                 ; 0000 0145                         lcd_gotoxy(0,1);
                 ; 0000 0146                         lcd_puts(buff);
000563 940e 186d 	CALL SUBOPT_0x16
000565 940e 176d 	CALL _lcd_puts
                 ; 0000 0147                         if(!s2){
000567 999a      	SBIC 0x13,2
000568 c00d      	RJMP _0x6F
                 ; 0000 0148                         kd=kd+1;if (kd>255){kd=0;}}
000569 91e0 028a 	LDS  R30,_kd
00056b 5fef      	SUBI R30,-LOW(1)
00056c 93e0 028a 	STS  _kd,R30
00056e 91a0 028a 	LDS  R26,_kd
000570 efef      	LDI  R30,LOW(255)
000571 17ea      	CP   R30,R26
000572 f418      	BRSH _0x70
000573 e0e0      	LDI  R30,LOW(0)
000574 93e0 028a 	STS  _kd,R30
                 _0x70:
                 ; 0000 0149                         if(!s3){kd=kd-1;if (kd<0){kd=255;}}
                 _0x6F:
000576 999b      	SBIC 0x13,3
000577 c008      	RJMP _0x71
000578 91e0 028a 	LDS  R30,_kd
00057a 940e 18a6 	CALL SUBOPT_0x20
00057c 93e0 028a 	STS  _kd,R30
00057e 91a0 028a 	LDS  R26,_kd
                 ; 0000 014A                         }
                 _0x71:
                 ; 0000 014B                 if(!s4){
                 _0x6E:
000580 999c      	SBIC 0x13,4
000581 c02c      	RJMP _0x73
                 ; 0000 014C                 if(kp!=ekp){ekp=kp;}
000582 e9aa      	LDI  R26,LOW(_ekp)
000583 e0b2      	LDI  R27,HIGH(_ekp)
000584 940e 1af4 	CALL __EEPROMRDB
000586 91a0 0289 	LDS  R26,_kp
000588 17ea      	CP   R30,R26
000589 f031      	BREQ _0x74
00058a 91e0 0289 	LDS  R30,_kp
00058c e9aa      	LDI  R26,LOW(_ekp)
00058d e0b2      	LDI  R27,HIGH(_ekp)
00058e 940e 1b00 	CALL __EEPROMWRB
                 ; 0000 014D                 if(ki!=eki){eki=ki;}
                 _0x74:
000590 e9ac      	LDI  R26,LOW(_eki)
000591 e0b2      	LDI  R27,HIGH(_eki)
000592 940e 1af4 	CALL __EEPROMRDB
000594 91a0 028b 	LDS  R26,_ki
000596 17ea      	CP   R30,R26
000597 f031      	BREQ _0x75
000598 91e0 028b 	LDS  R30,_ki
00059a e9ac      	LDI  R26,LOW(_eki)
00059b e0b2      	LDI  R27,HIGH(_eki)
00059c 940e 1b00 	CALL __EEPROMWRB
                 ; 0000 014E                 if(kd!=ekd){ekd=kd;}
                 _0x75:
00059e e9ab      	LDI  R26,LOW(_ekd)
00059f e0b2      	LDI  R27,HIGH(_ekd)
0005a0 940e 1af4 	CALL __EEPROMRDB
0005a2 91a0 028a 	LDS  R26,_kd
0005a4 17ea      	CP   R30,R26
0005a5 f031      	BREQ _0x76
0005a6 91e0 028a 	LDS  R30,_kd
0005a8 e9ab      	LDI  R26,LOW(_ekd)
0005a9 e0b2      	LDI  R27,HIGH(_ekd)
0005aa 940e 1b00 	CALL __EEPROMWRB
                 ; 0000 014F                 saved();
                 _0x76:
0005ac dced      	RCALL _saved
                 ; 0000 0150                 break;
0005ad c005      	RJMP _0x55
                 ; 0000 0151                 }
                 ; 0000 0152 delay_ms(100);
                 _0x73:
0005ae e6e4      	LDI  R30,LOW(100)
0005af e0f0      	LDI  R31,HIGH(100)
0005b0 940e 18ae 	CALL SUBOPT_0x22
                 ; 0000 0153 }
0005b2 cf14      	RJMP _0x53
                 _0x55:
                 ; 0000 0154 }
0005b3 c126      	RJMP _0x2080006
                 ;
                 ;//-------------fungsi setting timer--------//
                 ;void waktu()
                 ; 0000 0158 {int x;
                 _waktu:
                 ; 0000 0159 x=0;
0005b4 940e 17d4 	CALL SUBOPT_0x0
                 ;	x -> R16,R17
                 ; 0000 015A while(1){
                 _0x77:
                 ; 0000 015B if(!s1||!s2||!s3||!s4||!s5){led=0;}
0005b6 9b98      	SBIS 0x13,0
0005b7 c008      	RJMP _0x7B
0005b8 9b9a      	SBIS 0x13,2
0005b9 c006      	RJMP _0x7B
0005ba 9b9b      	SBIS 0x13,3
0005bb c004      	RJMP _0x7B
0005bc 9b9c      	SBIS 0x13,4
0005bd c002      	RJMP _0x7B
0005be 9999      	SBIC 0x13,1
0005bf c002      	RJMP _0x7A
                 _0x7B:
0005c0 9897      	CBI  0x12,7
                 ; 0000 015C else{led=1;}
0005c1 c001      	RJMP _0x7F
                 _0x7A:
0005c2 9a97      	SBI  0x12,7
                 _0x7F:
                 ; 0000 015D lmp=1;
0005c3 940e 18b2 	CALL SUBOPT_0x23
                 ; 0000 015E lcd_putsf("    [SETTING]");
                 ; 0000 015F lcd_gotoxy(0,0);
0005c5 940e 1868 	CALL SUBOPT_0x15
                 ; 0000 0160 sprintf(buff,"Timer %02d =%03d    ",x,timer[x]);
0005c7 940e 186d 	CALL SUBOPT_0x16
                +
0005c9 e1eb     +LDI R30 , LOW ( 2 * _0x0 + ( 177 ) )
0005ca e0f1     +LDI R31 , HIGH ( 2 * _0x0 + ( 177 ) )
                 	__POINTW1FN _0x0,177
0005cb 940e 18b6 	CALL SUBOPT_0x24
0005cd e8ae      	LDI  R26,LOW(_timer)
0005ce e0b2      	LDI  R27,HIGH(_timer)
0005cf 940e 18b9 	CALL SUBOPT_0x25
0005d1 940e 187e 	CALL SUBOPT_0x19
                 ; 0000 0161 lcd_gotoxy(0,1);
0005d3 940e 185f 	CALL SUBOPT_0x13
                 ; 0000 0162 lcd_puts(buff);
0005d5 940e 186d 	CALL SUBOPT_0x16
0005d7 940e 176d 	CALL _lcd_puts
                 ; 0000 0163 if(!s1){if(++x>batas){x=0;}lcd_clear();}
0005d9 9998      	SBIC 0x13,0
0005da c007      	RJMP _0x84
0005db 940e 18bd 	CALL SUBOPT_0x26
0005dd f414      	BRGE _0x85
                +
0005de e000     +LDI R16 , LOW ( 0 )
0005df e010     +LDI R17 , HIGH ( 0 )
                 	__GETWRN 16,17,0
                 _0x85:
0005e0 940e 173d 	CALL _lcd_clear
                 ; 0000 0164 if(!s5){if(--x==-1){x=batas;}lcd_clear();}
                 _0x84:
0005e2 9999      	SBIC 0x13,1
0005e3 c008      	RJMP _0x86
0005e4 940e 18c7 	CALL SUBOPT_0x27
0005e6 f419      	BRNE _0x87
0005e7 9100 028d 	LDS  R16,_batas
0005e9 2711      	CLR  R17
                 _0x87:
0005ea 940e 173d 	CALL _lcd_clear
                 ; 0000 0165 if(!s2){timer[x]=timer[x]+1;}
                 _0x86:
0005ec 999a      	SBIC 0x13,2
0005ed c004      	RJMP _0x88
0005ee 940e 18ce 	CALL SUBOPT_0x28
0005f0 940e 18d7 	CALL SUBOPT_0x29
                 ; 0000 0166 if(!s3){timer[x]=timer[x]-1;}
                 _0x88:
0005f2 999b      	SBIC 0x13,3
0005f3 c007      	RJMP _0x89
0005f4 940e 18ce 	CALL SUBOPT_0x28
0005f6 940e 1895 	CALL SUBOPT_0x1C
0005f8 9731      	SBIW R30,1
0005f9 01d0      	MOVW R26,R0
0005fa 93ec      	ST   X,R30
                 ; 0000 0167 if(!s4){lcd_clear();
                 _0x89:
0005fb 999c      	SBIC 0x13,4
0005fc c015      	RJMP _0x8A
0005fd 940e 18dc 	CALL SUBOPT_0x2A
                 ; 0000 0168 for(count2=0;count2<=batas;count2++){etimer[count2]=timer[count2];}
                 _0x8C:
0005ff 940e 18e2 	CALL SUBOPT_0x2B
000601 f070      	BRLO _0x8D
000602 940e 18e8 	CALL SUBOPT_0x2C
000604 52a8      	SUBI R26,LOW(-_etimer)
000605 4fbf      	SBCI R27,HIGH(-_etimer)
000606 940e 18ec 	CALL SUBOPT_0x2D
000608 57e2      	SUBI R30,LOW(-_timer)
000609 4ffd      	SBCI R31,HIGH(-_timer)
00060a 81e0      	LD   R30,Z
00060b 940e 1b00 	CALL __EEPROMWRB
00060d 940e 18f0 	CALL SUBOPT_0x2E
00060f cfef      	RJMP _0x8C
                 _0x8D:
                 ; 0000 0169                 saved();
000610 dc89      	RCALL _saved
                 ; 0000 016A                 break;}
000611 c003      	RJMP _0x79
                 ; 0000 016B delay_ms(150);
                 _0x8A:
000612 940e 18f6 	CALL SUBOPT_0x2F
                 ; 0000 016C }
000614 cfa1      	RJMP _0x77
                 _0x79:
                 ; 0000 016D }
000615 c0c4      	RJMP _0x2080006
                 ;
                 ;//-------------fungsi setting counter 1--------//
                 ;void pintas()
                 ; 0000 0171 {int x;
                 ; 0000 0172 x=1;
                 ;	x -> R16,R17
                 ; 0000 0173 while(1){
                 ; 0000 0174 if(!s1||!s2||!s3||!s4||!s5){led=0;}
                 ; 0000 0175 else{led=1;}
                 ; 0000 0176 lmp=1;
                 ; 0000 0177 lcd_putsf("    [SETTING]");
                 ; 0000 0178 lcd_gotoxy(0,0);
                 ; 0000 0179 sprintf(buff,"Count1 %02d ",x);
                 ; 0000 017A lcd_gotoxy(0,1);
                 ; 0000 017B lcd_puts(buff);
                 ; 0000 017C if(cut[x]==1){
                 ; 0000 017D lcd_gotoxy(11,1);
                 ; 0000 017E lcd_putsf("Lost   ");
                 ; 0000 017F }
                 ; 0000 0180 if(cut[x]==2){
                 ; 0000 0181 lcd_gotoxy(11,1);
                 ; 0000 0182 lcd_putsf("Kanan  ");
                 ; 0000 0183 }
                 ; 0000 0184 if(cut[x]==3){
                 ; 0000 0185 lcd_gotoxy(11,1);
                 ; 0000 0186 lcd_putsf("Kiri   ");
                 ; 0000 0187 }
                 ; 0000 0188 if(cut[x]==4){
                 ; 0000 0189 lcd_gotoxy(11,1);
                 ; 0000 018A lcd_putsf("Lost1  ");
                 ; 0000 018B }
                 ; 0000 018C if(cut[x]==5){
                 ; 0000 018D lcd_gotoxy(11,1);
                 ; 0000 018E lcd_putsf("Stop   ");
                 ; 0000 018F }
                 ; 0000 0190 if(!s1){if(++x>batas){x=1;}lcd_clear();}
                 ; 0000 0191 if(!s5){if(--x==0){x=batas;}lcd_clear();}
                 ; 0000 0192 if(!s2){if(++cut[x]==6){cut[x]=1;}}
                 ; 0000 0193 if(!s3){if(--cut[x]<=0){cut[x]=5;}}
                 ; 0000 0194 if(!s4){lcd_clear();
                 ; 0000 0195 for(count2=0;count2<=batas;count2++){ecut[count2]=cut[count2];}
                 ; 0000 0196                 saved();
                 ; 0000 0197                 break;}
                 ; 0000 0198 delay_ms(150);
                 ; 0000 0199 }
                 ; 0000 019A }
                 ;
                 ;//-------------fungsi setting counter 2--------//
                 ;void pintas1()
                 ; 0000 019E {int x;
                 ; 0000 019F x=1;
                 ;	x -> R16,R17
                 ; 0000 01A0 while(1){
                 ; 0000 01A1 if(!s1||!s2||!s3||!s4||!s5){led=0;}
                 ; 0000 01A2 else{led=1;}
                 ; 0000 01A3 lmp=1;
                 ; 0000 01A4 lcd_putsf("    [SETTING]");
                 ; 0000 01A5 lcd_gotoxy(0,0);
                 ; 0000 01A6 sprintf(buff,"Count2 %02d ",x);
                 ; 0000 01A7 lcd_gotoxy(0,1);
                 ; 0000 01A8 lcd_puts(buff);
                 ; 0000 01A9 if(cut1[x]==1){
                 ; 0000 01AA lcd_gotoxy(11,1);
                 ; 0000 01AB lcd_putsf("Lost   ");
                 ; 0000 01AC }
                 ; 0000 01AD if(cut1[x]==2){
                 ; 0000 01AE lcd_gotoxy(11,1);
                 ; 0000 01AF lcd_putsf("Kanan  ");
                 ; 0000 01B0 
                 ; 0000 01B1 }
                 ; 0000 01B2 if(cut1[x]==3){
                 ; 0000 01B3 lcd_gotoxy(11,1);
                 ; 0000 01B4 lcd_putsf("Kiri   ");
                 ; 0000 01B5 }
                 ; 0000 01B6 if(cut1[x]==4){
                 ; 0000 01B7 lcd_gotoxy(11,1);
                 ; 0000 01B8 lcd_putsf("Lost1  ");
                 ; 0000 01B9 }
                 ; 0000 01BA if(cut1[x]==5){
                 ; 0000 01BB lcd_gotoxy(11,1);
                 ; 0000 01BC lcd_putsf("Stop   ");
                 ; 0000 01BD }
                 ; 0000 01BE if(!s1){if(++x>batas){x=1;}lcd_clear();}
                 ; 0000 01BF if(!s5){if(--x==0){x=batas;}lcd_clear();}
                 ; 0000 01C0 if(!s2){if(++cut1[x]==6){cut1[x]=1;}}
                 ; 0000 01C1 if(!s3){if(--cut1[x]<=0){cut1[x]=5;}}
                 ; 0000 01C2 if(!s4){lcd_clear();
                 ; 0000 01C3 for(count2=0;count2<=batas;count2++){ecut1[count2]=cut1[count2];}
                 ; 0000 01C4                 saved();
                 ; 0000 01C5                 break;}
                 ; 0000 01C6 delay_ms(150);
                 ; 0000 01C7 }
                 ; 0000 01C8 }
                 ;
                 ;//-------------fungsi setting delay rotate--------//
                 ;void delay()
                 ; 0000 01CC {int x;
                 _delay:
                 ; 0000 01CD x=1;
000616 940e 18f9 	CALL SUBOPT_0x30
                 ;	x -> R16,R17
                 ; 0000 01CE while(1){
                 _0xCA:
                 ; 0000 01CF if(!s1||!s2||!s3||!s4||!s5){led=0;}
000618 9b98      	SBIS 0x13,0
000619 c008      	RJMP _0xCE
00061a 9b9a      	SBIS 0x13,2
00061b c006      	RJMP _0xCE
00061c 9b9b      	SBIS 0x13,3
00061d c004      	RJMP _0xCE
00061e 9b9c      	SBIS 0x13,4
00061f c002      	RJMP _0xCE
000620 9999      	SBIC 0x13,1
000621 c002      	RJMP _0xCD
                 _0xCE:
000622 9897      	CBI  0x12,7
                 ; 0000 01D0 else{led=1;}
000623 c001      	RJMP _0xD2
                 _0xCD:
000624 9a97      	SBI  0x12,7
                 _0xD2:
                 ; 0000 01D1 lmp=1;
000625 940e 18b2 	CALL SUBOPT_0x23
                 ; 0000 01D2 lcd_putsf("    [SETTING]");
                 ; 0000 01D3 lcd_gotoxy(0,0);
000627 940e 1868 	CALL SUBOPT_0x15
                 ; 0000 01D4 sprintf(buff,"Rotate%02d =%03d    ",x,del[x]);
000629 940e 186d 	CALL SUBOPT_0x16
                +
00062b e7e2     +LDI R30 , LOW ( 2 * _0x0 + ( 264 ) )
00062c e0f1     +LDI R31 , HIGH ( 2 * _0x0 + ( 264 ) )
                 	__POINTW1FN _0x0,264
00062d 940e 18b6 	CALL SUBOPT_0x24
00062f e1ae      	LDI  R26,LOW(_del)
000630 e0b5      	LDI  R27,HIGH(_del)
000631 940e 18b9 	CALL SUBOPT_0x25
000633 940e 187e 	CALL SUBOPT_0x19
                 ; 0000 01D5 lcd_gotoxy(0,1);
000635 940e 185f 	CALL SUBOPT_0x13
                 ; 0000 01D6 lcd_puts(buff);
000637 940e 186d 	CALL SUBOPT_0x16
000639 940e 176d 	CALL _lcd_puts
                 ; 0000 01D7 if(!s1){if(++x>batas){x=1;}lcd_clear();}
00063b 9998      	SBIC 0x13,0
00063c c007      	RJMP _0xD7
00063d 940e 18bd 	CALL SUBOPT_0x26
00063f f414      	BRGE _0xD8
                +
000640 e001     +LDI R16 , LOW ( 1 )
000641 e010     +LDI R17 , HIGH ( 1 )
                 	__GETWRN 16,17,1
                 _0xD8:
000642 940e 173d 	CALL _lcd_clear
                 ; 0000 01D8 if(!s5){if(--x==0){x=batas;}lcd_clear();}
                 _0xD7:
000644 9999      	SBIC 0x13,1
000645 c009      	RJMP _0xD9
000646 01f8      	MOVW R30,R16
000647 9731      	SBIW R30,1
000648 018f      	MOVW R16,R30
000649 f419      	BRNE _0xDA
00064a 9100 028d 	LDS  R16,_batas
00064c 2711      	CLR  R17
                 _0xDA:
00064d 940e 173d 	CALL _lcd_clear
                 ; 0000 01D9 if(!s2){del[x]=del[x]+5;}
                 _0xD9:
00064f 999a      	SBIC 0x13,2
000650 c004      	RJMP _0xDB
000651 940e 18fe 	CALL SUBOPT_0x31
000653 940e 1907 	CALL SUBOPT_0x32
                 ; 0000 01DA if(!s3){del[x]=del[x]-5;}
                 _0xDB:
000655 999b      	SBIC 0x13,3
000656 c007      	RJMP _0xDC
000657 940e 18fe 	CALL SUBOPT_0x31
000659 940e 1895 	CALL SUBOPT_0x1C
00065b 9735      	SBIW R30,5
00065c 01d0      	MOVW R26,R0
00065d 93ec      	ST   X,R30
                 ; 0000 01DB if(!s4){lcd_clear();
                 _0xDC:
00065e 999c      	SBIC 0x13,4
00065f c015      	RJMP _0xDD
000660 940e 18dc 	CALL SUBOPT_0x2A
                 ; 0000 01DC for(count2=0;count2<=batas;count2++){edel[count2]=del[count2];}
                 _0xDF:
000662 940e 18e2 	CALL SUBOPT_0x2B
000664 f070      	BRLO _0xE0
000665 940e 18e8 	CALL SUBOPT_0x2C
000667 5caf      	SUBI R26,LOW(-_edel)
000668 4fbd      	SBCI R27,HIGH(-_edel)
000669 940e 18ec 	CALL SUBOPT_0x2D
00066b 5ee2      	SUBI R30,LOW(-_del)
00066c 4ffa      	SBCI R31,HIGH(-_del)
00066d 81e0      	LD   R30,Z
00066e 940e 1b00 	CALL __EEPROMWRB
000670 940e 18f0 	CALL SUBOPT_0x2E
000672 cfef      	RJMP _0xDF
                 _0xE0:
                 ; 0000 01DD                 saved();
000673 dc26      	RCALL _saved
                 ; 0000 01DE                 break;}
000674 c003      	RJMP _0xCC
                 ; 0000 01DF delay_ms(150);
                 _0xDD:
000675 940e 18f6 	CALL SUBOPT_0x2F
                 ; 0000 01E0 }
000677 cfa0      	RJMP _0xCA
                 _0xCC:
                 ; 0000 01E1 }
000678 c061      	RJMP _0x2080006
                 ;
                 ;//-------------fungsi setting kecepatan 1 counter--------//
                 ;void kecepatan()
                 ; 0000 01E5 {int xx;
                 _kecepatan:
                 ; 0000 01E6 xx=0;
000679 940e 17d4 	CALL SUBOPT_0x0
                 ;	xx -> R16,R17
                 ; 0000 01E7 while(1){
                 _0xE1:
                 ; 0000 01E8 if(!s1||!s2||!s3||!s4||!s5){led=0;}
00067b 9b98      	SBIS 0x13,0
00067c c008      	RJMP _0xE5
00067d 9b9a      	SBIS 0x13,2
00067e c006      	RJMP _0xE5
00067f 9b9b      	SBIS 0x13,3
000680 c004      	RJMP _0xE5
000681 9b9c      	SBIS 0x13,4
000682 c002      	RJMP _0xE5
000683 9999      	SBIC 0x13,1
000684 c002      	RJMP _0xE4
                 _0xE5:
000685 9897      	CBI  0x12,7
                 ; 0000 01E9 else{led=1;}
000686 c001      	RJMP _0xE9
                 _0xE4:
000687 9a97      	SBI  0x12,7
                 _0xE9:
                 ; 0000 01EA lmp=1;
000688 940e 18b2 	CALL SUBOPT_0x23
                 ; 0000 01EB lcd_putsf("    [SETTING]");
                 ; 0000 01EC lcd_gotoxy(0,0);
00068a 940e 1868 	CALL SUBOPT_0x15
                 ; 0000 01ED sprintf(buff,"Speed1 %02d =%03d    ",xx,speed[xx]);
00068c 940e 186d 	CALL SUBOPT_0x16
                +
00068e e8e7     +LDI R30 , LOW ( 2 * _0x0 + ( 285 ) )
00068f e0f1     +LDI R31 , HIGH ( 2 * _0x0 + ( 285 ) )
                 	__POINTW1FN _0x0,285
000690 940e 18b6 	CALL SUBOPT_0x24
000692 efa3      	LDI  R26,LOW(_speed)
000693 e0b2      	LDI  R27,HIGH(_speed)
000694 940e 18b9 	CALL SUBOPT_0x25
000696 940e 187e 	CALL SUBOPT_0x19
                 ; 0000 01EE lcd_gotoxy(0,1);
000698 940e 185f 	CALL SUBOPT_0x13
                 ; 0000 01EF lcd_puts(buff);
00069a 940e 186d 	CALL SUBOPT_0x16
00069c 940e 176d 	CALL _lcd_puts
                 ; 0000 01F0 if(!s1){if(++xx>batas){xx=0;}lcd_clear();}
00069e 9998      	SBIC 0x13,0
00069f c007      	RJMP _0xEE
0006a0 940e 18bd 	CALL SUBOPT_0x26
0006a2 f414      	BRGE _0xEF
                +
0006a3 e000     +LDI R16 , LOW ( 0 )
0006a4 e010     +LDI R17 , HIGH ( 0 )
                 	__GETWRN 16,17,0
                 _0xEF:
0006a5 940e 173d 	CALL _lcd_clear
                 ; 0000 01F1 if(!s5){if(--xx==-1){xx=batas;}lcd_clear();}
                 _0xEE:
0006a7 9999      	SBIC 0x13,1
0006a8 c008      	RJMP _0xF0
0006a9 940e 18c7 	CALL SUBOPT_0x27
0006ab f419      	BRNE _0xF1
0006ac 9100 028d 	LDS  R16,_batas
0006ae 2711      	CLR  R17
                 _0xF1:
0006af 940e 173d 	CALL _lcd_clear
                 ; 0000 01F2 if(!s2){speed[xx]=speed[xx]+5;}
                 _0xF0:
0006b1 999a      	SBIC 0x13,2
0006b2 c004      	RJMP _0xF2
0006b3 940e 190c 	CALL SUBOPT_0x33
0006b5 940e 1907 	CALL SUBOPT_0x32
                 ; 0000 01F3 if(!s3){speed[xx]=speed[xx]-5;}
                 _0xF2:
0006b7 999b      	SBIC 0x13,3
0006b8 c007      	RJMP _0xF3
0006b9 940e 190c 	CALL SUBOPT_0x33
0006bb 940e 1895 	CALL SUBOPT_0x1C
0006bd 9735      	SBIW R30,5
0006be 01d0      	MOVW R26,R0
0006bf 93ec      	ST   X,R30
                 ; 0000 01F4 if(!s4){lcd_clear();
                 _0xF3:
0006c0 999c      	SBIC 0x13,4
0006c1 c015      	RJMP _0xF4
0006c2 940e 18dc 	CALL SUBOPT_0x2A
                 ; 0000 01F5 for(count2=0;count2<=batas;count2++){espeed[count2]=speed[count2];}
                 _0xF6:
0006c4 940e 18e2 	CALL SUBOPT_0x2B
0006c6 f070      	BRLO _0xF7
0006c7 940e 18e8 	CALL SUBOPT_0x2C
0006c9 5fa2      	SUBI R26,LOW(-_espeed)
0006ca 4fbf      	SBCI R27,HIGH(-_espeed)
0006cb 940e 18ec 	CALL SUBOPT_0x2D
0006cd 50ed      	SUBI R30,LOW(-_speed)
0006ce 4ffd      	SBCI R31,HIGH(-_speed)
0006cf 81e0      	LD   R30,Z
0006d0 940e 1b00 	CALL __EEPROMWRB
0006d2 940e 18f0 	CALL SUBOPT_0x2E
0006d4 cfef      	RJMP _0xF6
                 _0xF7:
                 ; 0000 01F6                 saved();
0006d5 dbc4      	RCALL _saved
                 ; 0000 01F7                 break;}
0006d6 c003      	RJMP _0xE3
                 ; 0000 01F8 delay_ms(150);
                 _0xF4:
0006d7 940e 18f6 	CALL SUBOPT_0x2F
                 ; 0000 01F9 }
0006d9 cfa1      	RJMP _0xE1
                 _0xE3:
                 ; 0000 01FA }
                 _0x2080006:
0006da 9109      	LD   R16,Y+
0006db 9119      	LD   R17,Y+
0006dc 9508      	RET
                 ;
                 ;//-------------fungsi setting kecepatan 2 counter--------//
                 ;void kecepatan1()
                 ; 0000 01FE {int xx;
                 _kecepatan1:
                 ; 0000 01FF xx=0;
0006dd 940e 17d4 	CALL SUBOPT_0x0
                 ;	xx -> R16,R17
                 ; 0000 0200 while(1){
                 _0xF8:
                 ; 0000 0201 if(!s1||!s2||!s3||!s4||!s5){led=0;}
0006df 9b98      	SBIS 0x13,0
0006e0 c008      	RJMP _0xFC
0006e1 9b9a      	SBIS 0x13,2
0006e2 c006      	RJMP _0xFC
0006e3 9b9b      	SBIS 0x13,3
0006e4 c004      	RJMP _0xFC
0006e5 9b9c      	SBIS 0x13,4
0006e6 c002      	RJMP _0xFC
0006e7 9999      	SBIC 0x13,1
0006e8 c002      	RJMP _0xFB
                 _0xFC:
0006e9 9897      	CBI  0x12,7
                 ; 0000 0202 else{led=1;}
0006ea c001      	RJMP _0x100
                 _0xFB:
0006eb 9a97      	SBI  0x12,7
                 _0x100:
                 ; 0000 0203 lmp=1;
0006ec 940e 18b2 	CALL SUBOPT_0x23
                 ; 0000 0204 lcd_putsf("    [SETTING]");
                 ; 0000 0205 lcd_gotoxy(0,0);
0006ee 940e 1868 	CALL SUBOPT_0x15
                 ; 0000 0206 sprintf(buff,"Speed2 %02d =%03d    ",xx,speed1[xx]);
0006f0 940e 186d 	CALL SUBOPT_0x16
                +
0006f2 e9ed     +LDI R30 , LOW ( 2 * _0x0 + ( 307 ) )
0006f3 e0f1     +LDI R31 , HIGH ( 2 * _0x0 + ( 307 ) )
                 	__POINTW1FN _0x0,307
0006f4 940e 18b6 	CALL SUBOPT_0x24
0006f6 e5a8      	LDI  R26,LOW(_speed1)
0006f7 e0b3      	LDI  R27,HIGH(_speed1)
0006f8 940e 18b9 	CALL SUBOPT_0x25
0006fa 940e 187e 	CALL SUBOPT_0x19
                 ; 0000 0207 lcd_gotoxy(0,1);
0006fc 940e 185f 	CALL SUBOPT_0x13
                 ; 0000 0208 lcd_puts(buff);
0006fe 940e 186d 	CALL SUBOPT_0x16
000700 940e 176d 	CALL _lcd_puts
                 ; 0000 0209 if(!s1){if(++xx>batas){xx=0;}lcd_clear();}
000702 9998      	SBIC 0x13,0
000703 c007      	RJMP _0x105
000704 940e 18bd 	CALL SUBOPT_0x26
000706 f414      	BRGE _0x106
                +
000707 e000     +LDI R16 , LOW ( 0 )
000708 e010     +LDI R17 , HIGH ( 0 )
                 	__GETWRN 16,17,0
                 _0x106:
000709 940e 173d 	CALL _lcd_clear
                 ; 0000 020A if(!s5){if(--xx==-1){xx=batas;}lcd_clear();}
                 _0x105:
00070b 9999      	SBIC 0x13,1
00070c c008      	RJMP _0x107
00070d 940e 18c7 	CALL SUBOPT_0x27
00070f f419      	BRNE _0x108
000710 9100 028d 	LDS  R16,_batas
000712 2711      	CLR  R17
                 _0x108:
000713 940e 173d 	CALL _lcd_clear
                 ; 0000 020B if(!s2){speed1[xx]=speed1[xx]+5;}
                 _0x107:
000715 999a      	SBIC 0x13,2
000716 c004      	RJMP _0x109
000717 940e 1915 	CALL SUBOPT_0x34
000719 940e 1907 	CALL SUBOPT_0x32
                 ; 0000 020C if(!s3){speed1[xx]=speed1[xx]-5;}
                 _0x109:
00071b 999b      	SBIC 0x13,3
00071c c007      	RJMP _0x10A
00071d 940e 1915 	CALL SUBOPT_0x34
00071f 940e 1895 	CALL SUBOPT_0x1C
000721 9735      	SBIW R30,5
000722 01d0      	MOVW R26,R0
000723 93ec      	ST   X,R30
                 ; 0000 020D if(!s4){lcd_clear();
                 _0x10A:
000724 999c      	SBIC 0x13,4
000725 c015      	RJMP _0x10B
000726 940e 18dc 	CALL SUBOPT_0x2A
                 ; 0000 020E for(count2=0;count2<=batas;count2++){espeed1[count2]=speed1[count2];}
                 _0x10D:
000728 940e 18e2 	CALL SUBOPT_0x2B
00072a f070      	BRLO _0x10E
00072b 940e 18e8 	CALL SUBOPT_0x2C
00072d 58ad      	SUBI R26,LOW(-_espeed1)
00072e 4fbf      	SBCI R27,HIGH(-_espeed1)
00072f 940e 18ec 	CALL SUBOPT_0x2D
000731 5ae8      	SUBI R30,LOW(-_speed1)
000732 4ffc      	SBCI R31,HIGH(-_speed1)
000733 81e0      	LD   R30,Z
000734 940e 1b00 	CALL __EEPROMWRB
000736 940e 18f0 	CALL SUBOPT_0x2E
000738 cfef      	RJMP _0x10D
                 _0x10E:
                 ; 0000 020F                 saved();
000739 db60      	RCALL _saved
                 ; 0000 0210                 break;}
00073a c003      	RJMP _0xFA
                 ; 0000 0211 delay_ms(150);
                 _0x10B:
00073b 940e 18f6 	CALL SUBOPT_0x2F
                 ; 0000 0212 }
00073d cfa1      	RJMP _0xF8
                 _0xFA:
                 ; 0000 0213 }
00073e c4aa      	RJMP _0x2080005
                 ;
                 ;//-------------fungsi setting rencana cek point set timer--------//
                 ;void rencana1()
                 ; 0000 0217 {int xx;
                 _rencana1:
                 ; 0000 0218 xx=1;
00073f 940e 18f9 	CALL SUBOPT_0x30
                 ;	xx -> R16,R17
                 ; 0000 0219 while(1){
                 _0x10F:
                 ; 0000 021A if(!s1||!s2||!s3||!s4||!s5){led=0;}
000741 9b98      	SBIS 0x13,0
000742 c008      	RJMP _0x113
000743 9b9a      	SBIS 0x13,2
000744 c006      	RJMP _0x113
000745 9b9b      	SBIS 0x13,3
000746 c004      	RJMP _0x113
000747 9b9c      	SBIS 0x13,4
000748 c002      	RJMP _0x113
000749 9999      	SBIC 0x13,1
00074a c002      	RJMP _0x112
                 _0x113:
00074b 9897      	CBI  0x12,7
                 ; 0000 021B else{led=1;}
00074c c001      	RJMP _0x117
                 _0x112:
00074d 9a97      	SBI  0x12,7
                 _0x117:
                 ; 0000 021C lmp=1;
00074e 940e 18b2 	CALL SUBOPT_0x23
                 ; 0000 021D lcd_putsf("    [SETTING]");
                 ; 0000 021E lcd_gotoxy(0,0);
000750 940e 1868 	CALL SUBOPT_0x15
                 ; 0000 021F sprintf(buff,"Cp%02d Time=%03d    ",xx,plan[xx]);
000752 940e 186d 	CALL SUBOPT_0x16
                +
000754 ebe3     +LDI R30 , LOW ( 2 * _0x0 + ( 329 ) )
000755 e0f1     +LDI R31 , HIGH ( 2 * _0x0 + ( 329 ) )
                 	__POINTW1FN _0x0,329
000756 940e 18b6 	CALL SUBOPT_0x24
000758 e2a6      	LDI  R26,LOW(_plan)
000759 e0b4      	LDI  R27,HIGH(_plan)
00075a 940e 18b9 	CALL SUBOPT_0x25
00075c 940e 187e 	CALL SUBOPT_0x19
                 ; 0000 0220 lcd_gotoxy(0,1);
00075e 940e 185f 	CALL SUBOPT_0x13
                 ; 0000 0221 lcd_puts(buff);
000760 940e 186d 	CALL SUBOPT_0x16
000762 940e 176d 	CALL _lcd_puts
                 ; 0000 0222 if(!s1){if(++xx>20){xx=1;}lcd_clear();}
000764 9998      	SBIC 0x13,0
000765 c009      	RJMP _0x11C
000766 01f8      	MOVW R30,R16
000767 9631      	ADIW R30,1
000768 018f      	MOVW R16,R30
000769 9775      	SBIW R30,21
00076a f014      	BRLT _0x11D
                +
00076b e001     +LDI R16 , LOW ( 1 )
00076c e010     +LDI R17 , HIGH ( 1 )
                 	__GETWRN 16,17,1
                 _0x11D:
00076d 940e 173d 	CALL _lcd_clear
                 ; 0000 0223 if(!s5){if(--xx==0){xx=20;}lcd_clear();}
                 _0x11C:
00076f 9999      	SBIC 0x13,1
000770 c008      	RJMP _0x11E
000771 01f8      	MOVW R30,R16
000772 9731      	SBIW R30,1
000773 018f      	MOVW R16,R30
000774 f411      	BRNE _0x11F
                +
000775 e104     +LDI R16 , LOW ( 20 )
000776 e010     +LDI R17 , HIGH ( 20 )
                 	__GETWRN 16,17,20
                 _0x11F:
000777 940e 173d 	CALL _lcd_clear
                 ; 0000 0224 if(!s2){plan[xx]=plan[xx]+1;}
                 _0x11E:
000779 999a      	SBIC 0x13,2
00077a c004      	RJMP _0x120
00077b 940e 191e 	CALL SUBOPT_0x35
00077d 940e 18d7 	CALL SUBOPT_0x29
                 ; 0000 0225 if(!s3){plan[xx]=plan[xx]-1;}
                 _0x120:
00077f 999b      	SBIC 0x13,3
000780 c007      	RJMP _0x121
000781 940e 191e 	CALL SUBOPT_0x35
000783 940e 1895 	CALL SUBOPT_0x1C
000785 9731      	SBIW R30,1
000786 01d0      	MOVW R26,R0
000787 93ec      	ST   X,R30
                 ; 0000 0226 if(!s4){lcd_clear();
                 _0x121:
000788 999c      	SBIC 0x13,4
000789 c016      	RJMP _0x122
00078a 940e 18dc 	CALL SUBOPT_0x2A
                 ; 0000 0227 for(count2=0;count2<=20;count2++){eplan[count2]=plan[count2];}
                 _0x124:
00078c 91a0 03bd 	LDS  R26,_count2
00078e 31a5      	CPI  R26,LOW(0x15)
00078f f470      	BRSH _0x125
000790 940e 18e8 	CALL SUBOPT_0x2C
000792 5ca3      	SUBI R26,LOW(-_eplan)
000793 4fbe      	SBCI R27,HIGH(-_eplan)
000794 940e 18ec 	CALL SUBOPT_0x2D
000796 5dea      	SUBI R30,LOW(-_plan)
000797 4ffb      	SBCI R31,HIGH(-_plan)
000798 81e0      	LD   R30,Z
000799 940e 1b00 	CALL __EEPROMWRB
00079b 940e 18f0 	CALL SUBOPT_0x2E
00079d cfee      	RJMP _0x124
                 _0x125:
                 ; 0000 0228                 saved();
00079e dafb      	RCALL _saved
                 ; 0000 0229                 break;}
00079f c003      	RJMP _0x111
                 ; 0000 022A delay_ms(150);
                 _0x122:
0007a0 940e 18f6 	CALL SUBOPT_0x2F
                 ; 0000 022B }
0007a2 cf9e      	RJMP _0x10F
                 _0x111:
                 ; 0000 022C }
0007a3 c445      	RJMP _0x2080005
                 ;
                 ;//-------------fungsi setting rencana cek point set counter--------//
                 ;void rencana2()
                 ; 0000 0230 {int xx;
                 _rencana2:
                 ; 0000 0231 xx=1;
0007a4 940e 18f9 	CALL SUBOPT_0x30
                 ;	xx -> R16,R17
                 ; 0000 0232 while(1){
                 _0x126:
                 ; 0000 0233 if(!s1||!s2||!s3||!s4||!s5){led=0;}
0007a6 9b98      	SBIS 0x13,0
0007a7 c008      	RJMP _0x12A
0007a8 9b9a      	SBIS 0x13,2
0007a9 c006      	RJMP _0x12A
0007aa 9b9b      	SBIS 0x13,3
0007ab c004      	RJMP _0x12A
0007ac 9b9c      	SBIS 0x13,4
0007ad c002      	RJMP _0x12A
0007ae 9999      	SBIC 0x13,1
0007af c002      	RJMP _0x129
                 _0x12A:
0007b0 9897      	CBI  0x12,7
                 ; 0000 0234 else{led=1;}
0007b1 c001      	RJMP _0x12E
                 _0x129:
0007b2 9a97      	SBI  0x12,7
                 _0x12E:
                 ; 0000 0235 lmp=1;
0007b3 940e 18b2 	CALL SUBOPT_0x23
                 ; 0000 0236 lcd_putsf("    [SETTING]");
                 ; 0000 0237 lcd_gotoxy(0,0);
0007b5 940e 1868 	CALL SUBOPT_0x15
                 ; 0000 0238 sprintf(buff,"Cp%02d Read=%03d    ",xx,read[xx]);
0007b7 940e 186d 	CALL SUBOPT_0x16
                +
0007b9 ece8     +LDI R30 , LOW ( 2 * _0x0 + ( 350 ) )
0007ba e0f1     +LDI R31 , HIGH ( 2 * _0x0 + ( 350 ) )
                 	__POINTW1FN _0x0,350
0007bb 940e 18b6 	CALL SUBOPT_0x24
0007bd e3ab      	LDI  R26,LOW(_read)
0007be e0b4      	LDI  R27,HIGH(_read)
0007bf 940e 18b9 	CALL SUBOPT_0x25
0007c1 940e 187e 	CALL SUBOPT_0x19
                 ; 0000 0239 lcd_gotoxy(0,1);
0007c3 940e 185f 	CALL SUBOPT_0x13
                 ; 0000 023A lcd_puts(buff);
0007c5 940e 186d 	CALL SUBOPT_0x16
0007c7 940e 176d 	CALL _lcd_puts
                 ; 0000 023B if(!s1){if(++xx>20){xx=1;}lcd_clear();}
0007c9 9998      	SBIC 0x13,0
0007ca c009      	RJMP _0x133
0007cb 01f8      	MOVW R30,R16
0007cc 9631      	ADIW R30,1
0007cd 018f      	MOVW R16,R30
0007ce 9775      	SBIW R30,21
0007cf f014      	BRLT _0x134
                +
0007d0 e001     +LDI R16 , LOW ( 1 )
0007d1 e010     +LDI R17 , HIGH ( 1 )
                 	__GETWRN 16,17,1
                 _0x134:
0007d2 940e 173d 	CALL _lcd_clear
                 ; 0000 023C if(!s5){if(--xx==0){xx=20;}lcd_clear();}
                 _0x133:
0007d4 9999      	SBIC 0x13,1
0007d5 c008      	RJMP _0x135
0007d6 01f8      	MOVW R30,R16
0007d7 9731      	SBIW R30,1
0007d8 018f      	MOVW R16,R30
0007d9 f411      	BRNE _0x136
                +
0007da e104     +LDI R16 , LOW ( 20 )
0007db e010     +LDI R17 , HIGH ( 20 )
                 	__GETWRN 16,17,20
                 _0x136:
0007dc 940e 173d 	CALL _lcd_clear
                 ; 0000 023D if(!s2){read[xx]=read[xx]+1;}
                 _0x135:
0007de 999a      	SBIC 0x13,2
0007df c004      	RJMP _0x137
0007e0 940e 1927 	CALL SUBOPT_0x36
0007e2 940e 18d7 	CALL SUBOPT_0x29
                 ; 0000 023E if(!s3){read[xx]=read[xx]-1;}
                 _0x137:
0007e4 999b      	SBIC 0x13,3
0007e5 c007      	RJMP _0x138
0007e6 940e 1927 	CALL SUBOPT_0x36
0007e8 940e 1895 	CALL SUBOPT_0x1C
0007ea 9731      	SBIW R30,1
0007eb 01d0      	MOVW R26,R0
0007ec 93ec      	ST   X,R30
                 ; 0000 023F if(!s4){lcd_clear();
                 _0x138:
0007ed 999c      	SBIC 0x13,4
0007ee c016      	RJMP _0x139
0007ef 940e 18dc 	CALL SUBOPT_0x2A
                 ; 0000 0240 for(count2=0;count2<=20;count2++){eread[count2]=read[count2];}
                 _0x13B:
0007f1 91a0 03bd 	LDS  R26,_count2
0007f3 31a5      	CPI  R26,LOW(0x15)
0007f4 f470      	BRSH _0x13C
0007f5 940e 18e8 	CALL SUBOPT_0x2C
0007f7 5aae      	SUBI R26,LOW(-_eread)
0007f8 4fbe      	SBCI R27,HIGH(-_eread)
0007f9 940e 18ec 	CALL SUBOPT_0x2D
0007fb 5ce5      	SUBI R30,LOW(-_read)
0007fc 4ffb      	SBCI R31,HIGH(-_read)
0007fd 81e0      	LD   R30,Z
0007fe 940e 1b00 	CALL __EEPROMWRB
000800 940e 18f0 	CALL SUBOPT_0x2E
000802 cfee      	RJMP _0x13B
                 _0x13C:
                 ; 0000 0241                 saved();
000803 da96      	RCALL _saved
                 ; 0000 0242                 break;}
000804 c003      	RJMP _0x128
                 ; 0000 0243 delay_ms(150);
                 _0x139:
000805 940e 18f6 	CALL SUBOPT_0x2F
                 ; 0000 0244 }
000807 cf9e      	RJMP _0x126
                 _0x128:
                 ; 0000 0245 }
000808 c3e0      	RJMP _0x2080005
                 ;
                 ;//-------------fungsi ceking sensor--------//
                 ;void ceksensor()
                 ; 0000 0249 {int xx=0;
                 _ceksensor:
                 ; 0000 024A while(1){
000809 940e 17d4 	CALL SUBOPT_0x0
                 ;	xx -> R16,R17
                 _0x13D:
                 ; 0000 024B if(!s1||!s2||!s3||!s4||!s5){led=0;}
00080b 9b98      	SBIS 0x13,0
00080c c008      	RJMP _0x141
00080d 9b9a      	SBIS 0x13,2
00080e c006      	RJMP _0x141
00080f 9b9b      	SBIS 0x13,3
000810 c004      	RJMP _0x141
000811 9b9c      	SBIS 0x13,4
000812 c002      	RJMP _0x141
000813 9999      	SBIC 0x13,1
000814 c002      	RJMP _0x140
                 _0x141:
000815 9897      	CBI  0x12,7
                 ; 0000 024C else{led=1;}
000816 c001      	RJMP _0x145
                 _0x140:
000817 9a97      	SBI  0x12,7
                 _0x145:
                 ; 0000 024D lmp=1;
000818 940e 18b2 	CALL SUBOPT_0x23
                 ; 0000 024E lcd_putsf("    [SETTING]");
                 ; 0000 024F lcd_gotoxy(0,0);
00081a 940e 1868 	CALL SUBOPT_0x15
                 ; 0000 0250 sprintf(buff,"Sensor%d ->%d     ",xx,in);
00081c 940e 186d 	CALL SUBOPT_0x16
                +
00081e eded     +LDI R30 , LOW ( 2 * _0x0 + ( 371 ) )
00081f e0f1     +LDI R31 , HIGH ( 2 * _0x0 + ( 371 ) )
                 	__POINTW1FN _0x0,371
000820 940e 18b6 	CALL SUBOPT_0x24
000822 91e0 0593 	LDS  R30,_in
000824 940e 1872 	CALL SUBOPT_0x17
000826 940e 187e 	CALL SUBOPT_0x19
                 ; 0000 0251 lcd_gotoxy(0,1);
000828 940e 185f 	CALL SUBOPT_0x13
                 ; 0000 0252 lcd_puts(buff);
00082a 940e 186d 	CALL SUBOPT_0x16
00082c 940e 176d 	CALL _lcd_puts
                 ; 0000 0253 if(xx>13){xx=0;}
                +
00082e 300e     +CPI R16 , LOW ( 14 )
00082f e0e0     +LDI R30 , HIGH ( 14 )
000830 071e     +CPC R17 , R30
                 	__CPWRN 16,17,14
000831 f014      	BRLT _0x14A
                +
000832 e000     +LDI R16 , LOW ( 0 )
000833 e010     +LDI R17 , HIGH ( 0 )
                 	__GETWRN 16,17,0
                 ; 0000 0254 if(xx<0){xx=13;}
                 _0x14A:
000834 2311      	TST  R17
000835 f412      	BRPL _0x14B
                +
000836 e00d     +LDI R16 , LOW ( 13 )
000837 e010     +LDI R17 , HIGH ( 13 )
                 	__GETWRN 16,17,13
                 ; 0000 0255 if(!s2){xx=xx+1;}
                 _0x14B:
000838 999a      	SBIC 0x13,2
000839 c002      	RJMP _0x14C
                +
00083a 5f0f     +SUBI R16 , LOW ( - 1 )
00083b 4f1f     +SBCI R17 , HIGH ( - 1 )
                 	__ADDWRN 16,17,1
                 ; 0000 0256 if(!s3){xx=xx-1;}
                 _0x14C:
00083c 999b      	SBIC 0x13,3
00083d c002      	RJMP _0x14D
                +
00083e 5001     +SUBI R16 , LOW ( 1 )
00083f 4010     +SBCI R17 , HIGH ( 1 )
                 	__SUBWRN 16,17,1
                 ; 0000 0257 if(xx<7){L=1;R=0;in=read_adc(xx);}
                 _0x14D:
                +
000840 3007     +CPI R16 , LOW ( 7 )
000841 e0e0     +LDI R30 , HIGH ( 7 )
000842 071e     +CPC R17 , R30
                 	__CPWRN 16,17,7
000843 f42c      	BRGE _0x14E
000844 9aaf      	SBI  0x15,7
000845 98ae      	CBI  0x15,6
000846 930a      	ST   -Y,R16
000847 940e 1930 	CALL SUBOPT_0x37
                 ; 0000 0258 if(xx>=7){L=0;R=1;in=read_adc(xx-7);}
                 _0x14E:
                +
000849 3007     +CPI R16 , LOW ( 7 )
00084a e0e0     +LDI R30 , HIGH ( 7 )
00084b 071e     +CPC R17 , R30
                 	__CPWRN 16,17,7
00084c f03c      	BRLT _0x153
00084d 98af      	CBI  0x15,7
00084e 9aae      	SBI  0x15,6
00084f 01f8      	MOVW R30,R16
000850 9737      	SBIW R30,7
000851 93ea      	ST   -Y,R30
000852 940e 1930 	CALL SUBOPT_0x37
                 ; 0000 0259 if(!s4){
                 _0x153:
000854 999c      	SBIC 0x13,4
000855 c003      	RJMP _0x158
                 ; 0000 025A                 lcd_clear();
000856 940e 173d 	CALL _lcd_clear
                 ; 0000 025B                 break;}
000858 c003      	RJMP _0x13F
                 ; 0000 025C delay_ms(150);
                 _0x158:
000859 940e 18f6 	CALL SUBOPT_0x2F
                 ; 0000 025D }
00085b cfaf      	RJMP _0x13D
                 _0x13F:
                 ; 0000 025E }
00085c c38c      	RJMP _0x2080005
                 ;
                 ;//-------------fungsi setting mode darurat--------//
                 ;void darurat()
                 ; 0000 0262 {
                 _darurat:
                 ; 0000 0263 int ss=0;
                 ; 0000 0264 while(1){
00085d 940e 17d4 	CALL SUBOPT_0x0
                 ;	ss -> R16,R17
                 _0x159:
                 ; 0000 0265 if(!s1||!s2||!s3||!s4||!s5){led=0;}
00085f 9b98      	SBIS 0x13,0
000860 c008      	RJMP _0x15D
000861 9b9a      	SBIS 0x13,2
000862 c006      	RJMP _0x15D
000863 9b9b      	SBIS 0x13,3
000864 c004      	RJMP _0x15D
000865 9b9c      	SBIS 0x13,4
000866 c002      	RJMP _0x15D
000867 9999      	SBIC 0x13,1
000868 c002      	RJMP _0x15C
                 _0x15D:
000869 9897      	CBI  0x12,7
                 ; 0000 0266 else{led=1;}
00086a c001      	RJMP _0x161
                 _0x15C:
00086b 9a97      	SBI  0x12,7
                 _0x161:
                 ; 0000 0267 lmp=1;
00086c 940e 18b2 	CALL SUBOPT_0x23
                 ; 0000 0268 lcd_putsf("    [SETTING]");
                 ; 0000 0269 lcd_gotoxy(0,0);
00086e 940e 1868 	CALL SUBOPT_0x15
                 ; 0000 026A sprintf(buff,"Cek Point[%02d]      ",ss);
000870 940e 186d 	CALL SUBOPT_0x16
                +
000872 efe0     +LDI R30 , LOW ( 2 * _0x0 + ( 390 ) )
000873 e0f1     +LDI R31 , HIGH ( 2 * _0x0 + ( 390 ) )
                 	__POINTW1FN _0x0,390
000874 940e 18b6 	CALL SUBOPT_0x24
000876 940e 189c 	CALL SUBOPT_0x1E
                 ; 0000 026B lcd_gotoxy(0,1);
                 ; 0000 026C lcd_puts(buff);
000878 940e 186d 	CALL SUBOPT_0x16
00087a 940e 176d 	CALL _lcd_puts
                 ; 0000 026D if(!s2){if(++ss>batas){ss=0;}delay_ms(150);}
00087c 999a      	SBIC 0x13,2
00087d c007      	RJMP _0x166
00087e 940e 18bd 	CALL SUBOPT_0x26
000880 f414      	BRGE _0x167
                +
000881 e000     +LDI R16 , LOW ( 0 )
000882 e010     +LDI R17 , HIGH ( 0 )
                 	__GETWRN 16,17,0
                 _0x167:
000883 940e 18f6 	CALL SUBOPT_0x2F
                 ; 0000 026E if(!s3){if(--ss<=-1){ss=batas;}delay_ms(150);}
                 _0x166:
000885 999b      	SBIC 0x13,3
000886 c00e      	RJMP _0x168
000887 01f8      	MOVW R30,R16
000888 9731      	SBIW R30,1
000889 018f      	MOVW R16,R30
00088a 01df      	MOVW R26,R30
00088b efef      	LDI  R30,LOW(65535)
00088c efff      	LDI  R31,HIGH(65535)
00088d 17ea      	CP   R30,R26
00088e 07fb      	CPC  R31,R27
00088f f01c      	BRLT _0x169
000890 9100 028d 	LDS  R16,_batas
000892 2711      	CLR  R17
                 _0x169:
000893 940e 18f6 	CALL SUBOPT_0x2F
                 ; 0000 026F if(!s4||!s6){lcd_clear();
                 _0x168:
000895 9b9c      	SBIS 0x13,4
000896 c002      	RJMP _0x16B
000897 999d      	SBIC 0x13,5
000898 c01c      	RJMP _0x16A
                 _0x16B:
000899 940e 173d 	CALL _lcd_clear
                 ; 0000 0270                 if(ss>0){start=read[ss];
00089b 2400      	CLR  R0
00089c 1600      	CP   R0,R16
00089d 0601      	CPC  R0,R17
00089e f49c      	BRGE _0x16D
00089f e3ab      	LDI  R26,LOW(_read)
0008a0 e0b4      	LDI  R27,HIGH(_read)
0008a1 0fa0      	ADD  R26,R16
0008a2 1fb1      	ADC  R27,R17
0008a3 91ec      	LD   R30,X
0008a4 93e0 03be 	STS  _start,R30
                 ; 0000 0271                 timer[start]=plan[ss];
0008a6 940e 17fc 	CALL SUBOPT_0x8
0008a8 57e2      	SUBI R30,LOW(-_timer)
0008a9 4ffd      	SBCI R31,HIGH(-_timer)
0008aa 010f      	MOVW R0,R30
0008ab e2a6      	LDI  R26,LOW(_plan)
0008ac e0b4      	LDI  R27,HIGH(_plan)
0008ad 0fa0      	ADD  R26,R16
0008ae 1fb1      	ADC  R27,R17
0008af 91ec      	LD   R30,X
0008b0 01d0      	MOVW R26,R0
0008b1 93ec      	ST   X,R30
                 ; 0000 0272                 }
                 ; 0000 0273                 lcd_clear();
                 _0x16D:
0008b2 940e 173d 	CALL _lcd_clear
                 ; 0000 0274                 break;}
0008b4 c001      	RJMP _0x15B
                 ; 0000 0275 }
                 _0x16A:
0008b5 cfa9      	RJMP _0x159
                 _0x15B:
                 ; 0000 0276 }
0008b6 c332      	RJMP _0x2080005
                 ;
                 ;//-------------fungsi setting menu--------//
                 ;void setting()
                 ; 0000 027A {
                 _setting:
                 ; 0000 027B 
                 ; 0000 027C 
                 ; 0000 027D int n;
                 ; 0000 027E n=0;
0008b7 940e 17d4 	CALL SUBOPT_0x0
                 ;	n -> R16,R17
                 ; 0000 027F while(1){
                 _0x16E:
                 ; 0000 0280 lmp=1;
0008b9 9ac3      	SBI  0x18,3
                 ; 0000 0281 
                 ; 0000 0282 if(!s1||!s2||!s3||!s4||!s5){led=0;}
0008ba 9b98      	SBIS 0x13,0
0008bb c008      	RJMP _0x174
0008bc 9b9a      	SBIS 0x13,2
0008bd c006      	RJMP _0x174
0008be 9b9b      	SBIS 0x13,3
0008bf c004      	RJMP _0x174
0008c0 9b9c      	SBIS 0x13,4
0008c1 c002      	RJMP _0x174
0008c2 9999      	SBIC 0x13,1
0008c3 c002      	RJMP _0x173
                 _0x174:
0008c4 9897      	CBI  0x12,7
                 ; 0000 0283 else{led=1;}
0008c5 c001      	RJMP _0x178
                 _0x173:
0008c6 9a97      	SBI  0x12,7
                 _0x178:
                 ; 0000 0284 if(!s5){n=n-1;lcd_clear();}
0008c7 9999      	SBIC 0x13,1
0008c8 c004      	RJMP _0x17B
                +
0008c9 5001     +SUBI R16 , LOW ( 1 )
0008ca 4010     +SBCI R17 , HIGH ( 1 )
                 	__SUBWRN 16,17,1
0008cb 940e 173d 	CALL _lcd_clear
                 ; 0000 0285 if(n==-1){n=18;}
                 _0x17B:
0008cd efef      	LDI  R30,LOW(65535)
0008ce efff      	LDI  R31,HIGH(65535)
0008cf 17e0      	CP   R30,R16
0008d0 07f1      	CPC  R31,R17
0008d1 f411      	BRNE _0x17C
                +
0008d2 e102     +LDI R16 , LOW ( 18 )
0008d3 e010     +LDI R17 , HIGH ( 18 )
                 	__GETWRN 16,17,18
                 ; 0000 0286 if(!s1){n=n+1;lcd_clear();}
                 _0x17C:
0008d4 9998      	SBIC 0x13,0
0008d5 c004      	RJMP _0x17D
                +
0008d6 5f0f     +SUBI R16 , LOW ( - 1 )
0008d7 4f1f     +SBCI R17 , HIGH ( - 1 )
                 	__ADDWRN 16,17,1
0008d8 940e 173d 	CALL _lcd_clear
                 ; 0000 0287 if(n==19){n=0;}
                 _0x17D:
0008da e1e3      	LDI  R30,LOW(19)
0008db e0f0      	LDI  R31,HIGH(19)
0008dc 17e0      	CP   R30,R16
0008dd 07f1      	CPC  R31,R17
0008de f411      	BRNE _0x17E
                +
0008df e000     +LDI R16 , LOW ( 0 )
0008e0 e010     +LDI R17 , HIGH ( 0 )
                 	__GETWRN 16,17,0
                 ; 0000 0288 
                 ; 0000 0289                 if(n==1){
                 _0x17E:
0008e1 940e 18a1 	CALL SUBOPT_0x1F
0008e3 f4e9      	BRNE _0x17F
                 ; 0000 028A                 lcd_gotoxy(4,0);
0008e4 940e 1935 	CALL SUBOPT_0x38
                 ; 0000 028B                 lcd_putsf("[SETTING]");
                 ; 0000 028C                         sprintf(buff,"1.Calibration %d ", m);
0008e6 940e 186d 	CALL SUBOPT_0x16
                +
0008e8 e0e6     +LDI R30 , LOW ( 2 * _0x0 + ( 412 ) )
0008e9 e0f2     +LDI R31 , HIGH ( 2 * _0x0 + ( 412 ) )
                 	__POINTW1FN _0x0,412
0008ea 93fa      	ST   -Y,R31
0008eb 93ea      	ST   -Y,R30
0008ec 01f5      	MOVW R30,R10
0008ed 940e 193e 	CALL SUBOPT_0x39
                 ; 0000 028D                         lcd_gotoxy(0,1);
                 ; 0000 028E                         lcd_puts(buff);
0008ef 940e 186d 	CALL SUBOPT_0x16
0008f1 940e 176d 	CALL _lcd_puts
                 ; 0000 028F                         if(!s2){autoscan();}
0008f3 9b9a      	SBIS 0x13,2
0008f4 dace      	RCALL _autoscan
                 ; 0000 0290                         if(!s3){m++;
0008f5 999b      	SBIC 0x13,3
0008f6 c00a      	RJMP _0x181
0008f7 01f5      	MOVW R30,R10
0008f8 9631      	ADIW R30,1
0008f9 015f      	MOVW R10,R30
                 ; 0000 0291                         if(m==2){m=0;}}}
0008fa e0e2      	LDI  R30,LOW(2)
0008fb e0f0      	LDI  R31,HIGH(2)
0008fc 15ea      	CP   R30,R10
0008fd 05fb      	CPC  R31,R11
0008fe f411      	BRNE _0x182
0008ff 24aa      	CLR  R10
000900 24bb      	CLR  R11
                 _0x182:
                 _0x181:
                 ; 0000 0292                 if(n==2){
                 _0x17F:
000901 940e 18a9 	CALL SUBOPT_0x21
000903 f539      	BRNE _0x183
                 ; 0000 0293                 lcd_gotoxy(4,0);
000904 940e 1935 	CALL SUBOPT_0x38
                 ; 0000 0294                 lcd_putsf("[SETTING]");
                 ; 0000 0295                         sprintf(buff,"2.Speed=%d   ",max1);
000906 940e 186d 	CALL SUBOPT_0x16
                +
000908 e1e8     +LDI R30 , LOW ( 2 * _0x0 + ( 430 ) )
000909 e0f2     +LDI R31 , HIGH ( 2 * _0x0 + ( 430 ) )
                 	__POINTW1FN _0x0,430
00090a 93fa      	ST   -Y,R31
00090b 93ea      	ST   -Y,R30
00090c 01f4      	MOVW R30,R8
00090d 940e 193e 	CALL SUBOPT_0x39
                 ; 0000 0296                         lcd_gotoxy(0,1);
                 ; 0000 0297                         lcd_puts(buff);
00090f 940e 186d 	CALL SUBOPT_0x16
000911 940e 176d 	CALL _lcd_puts
                 ; 0000 0298                         if(!s2){max1=max1+5;
000913 999a      	SBIC 0x13,2
000914 c00a      	RJMP _0x184
000915 01f4      	MOVW R30,R8
000916 9635      	ADIW R30,5
000917 014f      	MOVW R8,R30
                 ; 0000 0299                         if (max1>255){max1=0;}}
000918 efef      	LDI  R30,LOW(255)
000919 e0f0      	LDI  R31,HIGH(255)
00091a 15e8      	CP   R30,R8
00091b 05f9      	CPC  R31,R9
00091c f414      	BRGE _0x185
00091d 2488      	CLR  R8
00091e 2499      	CLR  R9
                 _0x185:
                 ; 0000 029A                         if(!s3){max1=max1-5;
                 _0x184:
00091f 999b      	SBIC 0x13,3
000920 c00a      	RJMP _0x186
000921 01f4      	MOVW R30,R8
000922 9735      	SBIW R30,5
000923 014f      	MOVW R8,R30
                 ; 0000 029B                         if (max1<0){max1=255;}}}
000924 2400      	CLR  R0
000925 1480      	CP   R8,R0
000926 0490      	CPC  R9,R0
000927 f41c      	BRGE _0x187
000928 efef      	LDI  R30,LOW(255)
000929 e0f0      	LDI  R31,HIGH(255)
00092a 014f      	MOVW R8,R30
                 _0x187:
                 _0x186:
                 ; 0000 029C                 if(n==3 ){
                 _0x183:
00092b e0e3      	LDI  R30,LOW(3)
00092c e0f0      	LDI  R31,HIGH(3)
00092d 17e0      	CP   R30,R16
00092e 07f1      	CPC  R31,R17
00092f f539      	BRNE _0x188
                 ; 0000 029D                 lcd_gotoxy(4,0);
000930 940e 1935 	CALL SUBOPT_0x38
                 ; 0000 029E                 lcd_putsf("[SETTING]");
                 ; 0000 029F                         sprintf(buff,"3.Kec.Belok=%d   ",lc);
000932 940e 186d 	CALL SUBOPT_0x16
                +
000934 e2e6     +LDI R30 , LOW ( 2 * _0x0 + ( 444 ) )
000935 e0f2     +LDI R31 , HIGH ( 2 * _0x0 + ( 444 ) )
                 	__POINTW1FN _0x0,444
000936 93fa      	ST   -Y,R31
000937 93ea      	ST   -Y,R30
000938 01f6      	MOVW R30,R12
000939 940e 193e 	CALL SUBOPT_0x39
                 ; 0000 02A0                         lcd_gotoxy(0,1);
                 ; 0000 02A1                         lcd_puts(buff);
00093b 940e 186d 	CALL SUBOPT_0x16
00093d 940e 176d 	CALL _lcd_puts
                 ; 0000 02A2                         if(!s2){lc=lc+5;
00093f 999a      	SBIC 0x13,2
000940 c00a      	RJMP _0x189
000941 01f6      	MOVW R30,R12
000942 9635      	ADIW R30,5
000943 016f      	MOVW R12,R30
                 ; 0000 02A3                         if (lc>255){lc=0;}}
000944 efef      	LDI  R30,LOW(255)
000945 e0f0      	LDI  R31,HIGH(255)
000946 15ec      	CP   R30,R12
000947 05fd      	CPC  R31,R13
000948 f414      	BRGE _0x18A
000949 24cc      	CLR  R12
00094a 24dd      	CLR  R13
                 _0x18A:
                 ; 0000 02A4                         if(!s3){lc=lc-5;
                 _0x189:
00094b 999b      	SBIC 0x13,3
00094c c00a      	RJMP _0x18B
00094d 01f6      	MOVW R30,R12
00094e 9735      	SBIW R30,5
00094f 016f      	MOVW R12,R30
                 ; 0000 02A5                         if (lc<0){lc=255;}}}
000950 2400      	CLR  R0
000951 14c0      	CP   R12,R0
000952 04d0      	CPC  R13,R0
000953 f41c      	BRGE _0x18C
000954 efef      	LDI  R30,LOW(255)
000955 e0f0      	LDI  R31,HIGH(255)
000956 016f      	MOVW R12,R30
                 _0x18C:
                 _0x18B:
                 ; 0000 02A6                 if(n==4){
                 _0x188:
000957 e0e4      	LDI  R30,LOW(4)
000958 e0f0      	LDI  R31,HIGH(4)
000959 17e0      	CP   R30,R16
00095a 07f1      	CPC  R31,R17
00095b f491      	BRNE _0x18D
                 ; 0000 02A7                 lcd_gotoxy(4,0);
00095c 940e 1935 	CALL SUBOPT_0x38
                 ; 0000 02A8                 lcd_putsf("[SETTING]");
                 ; 0000 02A9                         sprintf(buff,"4.");
00095e 940e 186d 	CALL SUBOPT_0x16
                +
000960 e3e8     +LDI R30 , LOW ( 2 * _0x0 + ( 462 ) )
000961 e0f2     +LDI R31 , HIGH ( 2 * _0x0 + ( 462 ) )
                 	__POINTW1FN _0x0,462
000962 93fa      	ST   -Y,R31
000963 93ea      	ST   -Y,R30
000964 e080      	LDI  R24,0
000965 940e 16c4 	CALL _sprintf
000967 9624      	ADIW R28,4
                 ; 0000 02AA                         lcd_gotoxy(0,1);
000968 940e 185f 	CALL SUBOPT_0x13
                 ; 0000 02AB                         lcd_puts(buff);
00096a 940e 186d 	CALL SUBOPT_0x16
00096c 940e 176d 	CALL _lcd_puts
                 ; 0000 02AC 
                 ; 0000 02AD                         }
                 ; 0000 02AE                 if(n==5){
                 _0x18D:
00096e e0e5      	LDI  R30,LOW(5)
00096f e0f0      	LDI  R31,HIGH(5)
000970 17e0      	CP   R30,R16
000971 07f1      	CPC  R31,R17
000972 f451      	BRNE _0x18E
                 ; 0000 02AF                 lcd_gotoxy(4,0);
000973 940e 1935 	CALL SUBOPT_0x38
                 ; 0000 02B0                 lcd_putsf("[SETTING]");
                 ; 0000 02B1                         lcd_gotoxy(0,1);
000975 940e 185f 	CALL SUBOPT_0x13
                 ; 0000 02B2                         lcd_putsf("5.PID ");
                +
000977 e3eb     +LDI R30 , LOW ( 2 * _0x0 + ( 465 ) )
000978 e0f2     +LDI R31 , HIGH ( 2 * _0x0 + ( 465 ) )
                 	__POINTW1FN _0x0,465
000979 940e 17f2 	CALL SUBOPT_0x6
                 ; 0000 02B3                         if(!s2){pid();}}
00097b 9b9a      	SBIS 0x13,2
00097c db48      	RCALL _pid
                 ; 0000 02B4                 if(n==6){
                 _0x18E:
00097d e0e6      	LDI  R30,LOW(6)
00097e e0f0      	LDI  R31,HIGH(6)
00097f 17e0      	CP   R30,R16
000980 07f1      	CPC  R31,R17
000981 f011      	BREQ PC+3
000982 940c 0a28 	JMP _0x190
                 ; 0000 02B5                 awalStrategi:
                 _0x191:
                 ; 0000 02B6                 lcd_clear();
000984 940e 173d 	CALL _lcd_clear
                 ; 0000 02B7                 lcd_gotoxy(4,0);
000986 940e 1935 	CALL SUBOPT_0x38
                 ; 0000 02B8                 lcd_putsf("[SETTING]");
                 ; 0000 02B9                   lcd_gotoxy(0,1);
000988 940e 185f 	CALL SUBOPT_0x13
                 ; 0000 02BA                   lcd_putsf("6.Strategi");
                +
00098a e4e2     +LDI R30 , LOW ( 2 * _0x0 + ( 472 ) )
00098b e0f2     +LDI R31 , HIGH ( 2 * _0x0 + ( 472 ) )
                 	__POINTW1FN _0x0,472
00098c 940e 17f2 	CALL SUBOPT_0x6
                 ; 0000 02BB                   if(!s2){
00098e 999a      	SBIC 0x13,2
00098f c098      	RJMP _0x192
                 ; 0000 02BC                    int p_strategi=0;
                 ; 0000 02BD                   lcd_clear();
000990 9722      	SBIW R28,2
000991 e0e0      	LDI  R30,LOW(0)
000992 83e8      	ST   Y,R30
000993 83e9      	STD  Y+1,R30
                 ;	p_strategi -> Y+0
000994 940e 173d 	CALL _lcd_clear
                 ; 0000 02BE 
                 ; 0000 02BF                 while(1){
                 _0x193:
                 ; 0000 02C0                 if(!s1){p_strategi=p_strategi+1;lcd_clear();delay_ms(250);}
000996 9998      	SBIC 0x13,0
000997 c006      	RJMP _0x196
000998 940e 1943 	CALL SUBOPT_0x3A
00099a efea      	LDI  R30,LOW(250)
00099b e0f0      	LDI  R31,HIGH(250)
00099c 940e 18ae 	CALL SUBOPT_0x22
                 ; 0000 02C1                 if(!s5){p_strategi=p_strategi-1;lcd_clear();delay_ms(250);}
                 _0x196:
00099e 9999      	SBIC 0x13,1
00099f c00b      	RJMP _0x197
0009a0 81e8      	LD   R30,Y
0009a1 81f9      	LDD  R31,Y+1
0009a2 9731      	SBIW R30,1
0009a3 83e8      	ST   Y,R30
0009a4 83f9      	STD  Y+1,R31
0009a5 940e 173d 	CALL _lcd_clear
0009a7 efea      	LDI  R30,LOW(250)
0009a8 e0f0      	LDI  R31,HIGH(250)
0009a9 940e 18ae 	CALL SUBOPT_0x22
                 ; 0000 02C2                 if(p_strategi==-1){p_strategi=4;}
                 _0x197:
0009ab 81a8      	LD   R26,Y
0009ac 81b9      	LDD  R27,Y+1
0009ad 3faf      	CPI  R26,LOW(0xFFFF)
0009ae efef      	LDI  R30,HIGH(0xFFFF)
0009af 07be      	CPC  R27,R30
0009b0 f421      	BRNE _0x198
0009b1 e0e4      	LDI  R30,LOW(4)
0009b2 e0f0      	LDI  R31,HIGH(4)
0009b3 83e8      	ST   Y,R30
0009b4 83f9      	STD  Y+1,R31
                 ; 0000 02C3                 if(p_strategi==5){p_strategi=0;}
                 _0x198:
0009b5 81a8      	LD   R26,Y
0009b6 81b9      	LDD  R27,Y+1
0009b7 9715      	SBIW R26,5
0009b8 f419      	BRNE _0x199
0009b9 e0e0      	LDI  R30,LOW(0)
0009ba 83e8      	STD  Y+0,R30
0009bb 83e9      	STD  Y+0+1,R30
                 ; 0000 02C4 
                 ; 0000 02C5                         if(p_strategi==0){
                 _0x199:
0009bc 81e8      	LD   R30,Y
0009bd 81f9      	LDD  R31,Y+1
0009be 9730      	SBIW R30,0
0009bf f5a9      	BRNE _0x19A
                 ; 0000 02C6                         lcd_gotoxy(2,0);
0009c0 940e 194a 	CALL SUBOPT_0x3B
                 ; 0000 02C7                         lcd_putsf("[6.Strategi]");
                 ; 0000 02C8                         sprintf(buff,"1.Speed Stra=%d   ", vc);
0009c2 940e 186d 	CALL SUBOPT_0x16
                +
0009c4 e5ea     +LDI R30 , LOW ( 2 * _0x0 + ( 496 ) )
0009c5 e0f2     +LDI R31 , HIGH ( 2 * _0x0 + ( 496 ) )
                 	__POINTW1FN _0x0,496
0009c6 93fa      	ST   -Y,R31
0009c7 93ea      	ST   -Y,R30
0009c8 940e 1953 	CALL SUBOPT_0x3C
0009ca 940e 193e 	CALL SUBOPT_0x39
                 ; 0000 02C9                         lcd_gotoxy(0,1);
                 ; 0000 02CA                         lcd_puts(buff);
0009cc 940e 186d 	CALL SUBOPT_0x16
0009ce 940e 176d 	CALL _lcd_puts
                 ; 0000 02CB                         if(!s2){
0009d0 999a      	SBIC 0x13,2
0009d1 c012      	RJMP _0x19B
                 ; 0000 02CC                         vc=vc+5;delay_ms(150);
0009d2 940e 1953 	CALL SUBOPT_0x3C
0009d4 9635      	ADIW R30,5
0009d5 940e 1958 	CALL SUBOPT_0x3D
                 ; 0000 02CD                         if(vc>255){vc=0;}}
0009d7 91a0 0279 	LDS  R26,_vc
0009d9 91b0 027a 	LDS  R27,_vc+1
0009db 30a0      	CPI  R26,LOW(0x100)
0009dc e0e1      	LDI  R30,HIGH(0x100)
0009dd 07be      	CPC  R27,R30
0009de f02c      	BRLT _0x19C
0009df e0e0      	LDI  R30,LOW(0)
0009e0 93e0 0279 	STS  _vc,R30
0009e2 93e0 027a 	STS  _vc+1,R30
                 _0x19C:
                 ; 0000 02CE                         if(!s3){vc=vc-5;delay_ms(150);
                 _0x19B:
0009e4 999b      	SBIC 0x13,3
0009e5 c00f      	RJMP _0x19D
0009e6 940e 1953 	CALL SUBOPT_0x3C
0009e8 9735      	SBIW R30,5
0009e9 940e 1958 	CALL SUBOPT_0x3D
                 ; 0000 02CF                         if (vc<0){vc=255;}}
0009eb 91a0 027a 	LDS  R26,_vc+1
0009ed 23aa      	TST  R26
0009ee f432      	BRPL _0x19E
0009ef efef      	LDI  R30,LOW(255)
0009f0 e0f0      	LDI  R31,HIGH(255)
0009f1 93e0 0279 	STS  _vc,R30
0009f3 93f0 027a 	STS  _vc+1,R31
                 _0x19E:
                 ; 0000 02D0                         }
                 _0x19D:
                 ; 0000 02D1 
                 ; 0000 02D2                         if(p_strategi==1){
                 _0x19A:
0009f5 81a8      	LD   R26,Y
0009f6 81b9      	LDD  R27,Y+1
0009f7 9711      	SBIW R26,1
0009f8 f441      	BRNE _0x19F
                 ; 0000 02D3                         lcd_gotoxy(2,0);
0009f9 940e 194a 	CALL SUBOPT_0x3B
                 ; 0000 02D4                         lcd_putsf("[6.Strategi]");
                 ; 0000 02D5                         lcd_gotoxy(0,1);
0009fb 940e 185f 	CALL SUBOPT_0x13
                 ; 0000 02D6                         lcd_putsf("2.Start A");
                +
0009fd e6ed     +LDI R30 , LOW ( 2 * _0x0 + ( 515 ) )
0009fe e0f2     +LDI R31 , HIGH ( 2 * _0x0 + ( 515 ) )
                 	__POINTW1FN _0x0,515
0009ff 940e 17f2 	CALL SUBOPT_0x6
                 ; 0000 02D7                         }
                 ; 0000 02D8 
                 ; 0000 02D9                         if(p_strategi==2){
                 _0x19F:
000a01 81a8      	LD   R26,Y
000a02 81b9      	LDD  R27,Y+1
000a03 9712      	SBIW R26,2
000a04 f441      	BRNE _0x1A0
                 ; 0000 02DA                         lcd_gotoxy(2,0);
000a05 940e 194a 	CALL SUBOPT_0x3B
                 ; 0000 02DB                         lcd_putsf("[6.Strategi]");
                 ; 0000 02DC                         lcd_gotoxy(0,1);
000a07 940e 185f 	CALL SUBOPT_0x13
                 ; 0000 02DD                         lcd_putsf("3.Start B");
                +
000a09 e7e7     +LDI R30 , LOW ( 2 * _0x0 + ( 525 ) )
000a0a e0f2     +LDI R31 , HIGH ( 2 * _0x0 + ( 525 ) )
                 	__POINTW1FN _0x0,525
000a0b 940e 17f2 	CALL SUBOPT_0x6
                 ; 0000 02DE                         }
                 ; 0000 02DF 
                 ; 0000 02E0                         if(p_strategi==3){
                 _0x1A0:
000a0d 81a8      	LD   R26,Y
000a0e 81b9      	LDD  R27,Y+1
000a0f 9713      	SBIW R26,3
000a10 f441      	BRNE _0x1A1
                 ; 0000 02E1                         lcd_gotoxy(2,0);
000a11 940e 194a 	CALL SUBOPT_0x3B
                 ; 0000 02E2                         lcd_putsf("[6.Strategi]");
                 ; 0000 02E3                         lcd_gotoxy(0,1);
000a13 940e 185f 	CALL SUBOPT_0x13
                 ; 0000 02E4                         lcd_putsf("4.Start C");
                +
000a15 e8e1     +LDI R30 , LOW ( 2 * _0x0 + ( 535 ) )
000a16 e0f2     +LDI R31 , HIGH ( 2 * _0x0 + ( 535 ) )
                 	__POINTW1FN _0x0,535
000a17 940e 17f2 	CALL SUBOPT_0x6
                 ; 0000 02E5                         }
                 ; 0000 02E6 
                 ; 0000 02E7                         if(p_strategi==4){
                 _0x1A1:
000a19 81a8      	LD   R26,Y
000a1a 81b9      	LDD  R27,Y+1
000a1b 9714      	SBIW R26,4
000a1c f441      	BRNE _0x1A2
                 ; 0000 02E8                         lcd_gotoxy(2,0);
000a1d 940e 194a 	CALL SUBOPT_0x3B
                 ; 0000 02E9                         lcd_putsf("[6.Strategi]");
                 ; 0000 02EA                         lcd_gotoxy(0,1);
000a1f 940e 185f 	CALL SUBOPT_0x13
                 ; 0000 02EB                         lcd_putsf("5.Start D");
                +
000a21 e8eb     +LDI R30 , LOW ( 2 * _0x0 + ( 545 ) )
000a22 e0f2     +LDI R31 , HIGH ( 2 * _0x0 + ( 545 ) )
                 	__POINTW1FN _0x0,545
000a23 940e 17f2 	CALL SUBOPT_0x6
                 ; 0000 02EC                         }
                 ; 0000 02ED 
                 ; 0000 02EE                         if(!s6){goto awalStrategi;}
                 _0x1A2:
000a25 9b9d      	SBIS 0x13,5
000a26 cf5d      	RJMP _0x191
                 ; 0000 02EF 
                 ; 0000 02F0                   }
000a27 cf6e      	RJMP _0x193
                 ; 0000 02F1 
                 ; 0000 02F2 
                 ; 0000 02F3                 }
                 ; 0000 02F4                 /*
                 ; 0000 02F5                 int p_strategi=0;
                 ; 0000 02F6                 while(1){
                 ; 0000 02F7                 if(!s3){p_strategi=p_strategi+1;lcd_clear();delay_ms(250);}
                 ; 0000 02F8                 if(p_strategi==2){p_strategi=0;}
                 ; 0000 02F9                         if(p_strategi==0){
                 ; 0000 02FA                         lcd_gotoxy(0,1);
                 ; 0000 02FB                         lcd_putsf("6.Strategi [1]");
                 ; 0000 02FC                         }
                 ; 0000 02FD 
                 ; 0000 02FE                         if(p_strategi==1){
                 ; 0000 02FF                         lcd_gotoxy(0,1);
                 ; 0000 0300                         lcd_putsf("6.Strategi [2]");
                 ; 0000 0301                         }
                 ; 0000 0302 
                 ; 0000 0303                 } */
                 ; 0000 0304 
                 ; 0000 0305                        //if(!s2){pintas();}
                 ; 0000 0306 
                 ; 0000 0307                         }
                 _0x192:
                 ; 0000 0308                 if(n==7){
                 _0x190:
000a28 e0e7      	LDI  R30,LOW(7)
000a29 e0f0      	LDI  R31,HIGH(7)
000a2a 17e0      	CP   R30,R16
000a2b 07f1      	CPC  R31,R17
000a2c f431      	BRNE _0x1A4
                 ; 0000 0309                         lcd_gotoxy(0,1);
000a2d 940e 185f 	CALL SUBOPT_0x13
                 ; 0000 030A                         lcd_putsf("7.");
                +
000a2f e9e5     +LDI R30 , LOW ( 2 * _0x0 + ( 555 ) )
000a30 e0f2     +LDI R31 , HIGH ( 2 * _0x0 + ( 555 ) )
                 	__POINTW1FN _0x0,555
000a31 940e 17f2 	CALL SUBOPT_0x6
                 ; 0000 030B                         //if(!s2){pintas1();}
                 ; 0000 030C                         }
                 ; 0000 030D 
                 ; 0000 030E                 if(n==8){
                 _0x1A4:
000a33 e0e8      	LDI  R30,LOW(8)
000a34 e0f0      	LDI  R31,HIGH(8)
000a35 17e0      	CP   R30,R16
000a36 07f1      	CPC  R31,R17
000a37 f441      	BRNE _0x1A5
                 ; 0000 030F                         lcd_gotoxy(0,1);
000a38 940e 185f 	CALL SUBOPT_0x13
                 ; 0000 0310                         lcd_putsf("8.Timer      ");
                +
000a3a e9e8     +LDI R30 , LOW ( 2 * _0x0 + ( 558 ) )
000a3b e0f2     +LDI R31 , HIGH ( 2 * _0x0 + ( 558 ) )
                 	__POINTW1FN _0x0,558
000a3c 940e 17f2 	CALL SUBOPT_0x6
                 ; 0000 0311                         if(!s2){waktu();}}
000a3e 9b9a      	SBIS 0x13,2
000a3f db74      	RCALL _waktu
                 ; 0000 0312                 if(n==9){
                 _0x1A5:
000a40 e0e9      	LDI  R30,LOW(9)
000a41 e0f0      	LDI  R31,HIGH(9)
000a42 17e0      	CP   R30,R16
000a43 07f1      	CPC  R31,R17
000a44 f441      	BRNE _0x1A7
                 ; 0000 0313                         lcd_gotoxy(0,1);
000a45 940e 185f 	CALL SUBOPT_0x13
                 ; 0000 0314                         lcd_putsf("9.Speed1 Count     ");
                +
000a47 eae6     +LDI R30 , LOW ( 2 * _0x0 + ( 572 ) )
000a48 e0f2     +LDI R31 , HIGH ( 2 * _0x0 + ( 572 ) )
                 	__POINTW1FN _0x0,572
000a49 940e 17f2 	CALL SUBOPT_0x6
                 ; 0000 0315                         if(!s2){kecepatan();}}
000a4b 9b9a      	SBIS 0x13,2
000a4c dc2c      	RCALL _kecepatan
                 ; 0000 0316                 if(n==10){
                 _0x1A7:
000a4d e0ea      	LDI  R30,LOW(10)
000a4e e0f0      	LDI  R31,HIGH(10)
000a4f 17e0      	CP   R30,R16
000a50 07f1      	CPC  R31,R17
000a51 f441      	BRNE _0x1A9
                 ; 0000 0317                         lcd_gotoxy(0,1);
000a52 940e 185f 	CALL SUBOPT_0x13
                 ; 0000 0318                         lcd_putsf("10.Speed2 Count     ");
                +
000a54 ebea     +LDI R30 , LOW ( 2 * _0x0 + ( 592 ) )
000a55 e0f2     +LDI R31 , HIGH ( 2 * _0x0 + ( 592 ) )
                 	__POINTW1FN _0x0,592
000a56 940e 17f2 	CALL SUBOPT_0x6
                 ; 0000 0319                         if(!s2){kecepatan1();}}
000a58 9b9a      	SBIS 0x13,2
000a59 dc83      	RCALL _kecepatan1
                 ; 0000 031A                 if(n==11){
                 _0x1A9:
000a5a e0eb      	LDI  R30,LOW(11)
000a5b e0f0      	LDI  R31,HIGH(11)
000a5c 17e0      	CP   R30,R16
000a5d 07f1      	CPC  R31,R17
000a5e f441      	BRNE _0x1AB
                 ; 0000 031B                         lcd_gotoxy(0,1);
000a5f 940e 185f 	CALL SUBOPT_0x13
                 ; 0000 031C                         lcd_putsf("11.Delay       ");
                +
000a61 ecef     +LDI R30 , LOW ( 2 * _0x0 + ( 613 ) )
000a62 e0f2     +LDI R31 , HIGH ( 2 * _0x0 + ( 613 ) )
                 	__POINTW1FN _0x0,613
000a63 940e 17f2 	CALL SUBOPT_0x6
                 ; 0000 031D                         if(!s2){delay();}}
000a65 9b9a      	SBIS 0x13,2
000a66 dbaf      	RCALL _delay
                 ; 0000 031E                 if(n==12){
                 _0x1AB:
000a67 e0ec      	LDI  R30,LOW(12)
000a68 e0f0      	LDI  R31,HIGH(12)
000a69 17e0      	CP   R30,R16
000a6a 07f1      	CPC  R31,R17
000a6b f441      	BRNE _0x1AD
                 ; 0000 031F                         lcd_gotoxy(0,1);
000a6c 940e 185f 	CALL SUBOPT_0x13
                 ; 0000 0320                         lcd_putsf("11.Plan Timer    ");
                +
000a6e edef     +LDI R30 , LOW ( 2 * _0x0 + ( 629 ) )
000a6f e0f2     +LDI R31 , HIGH ( 2 * _0x0 + ( 629 ) )
                 	__POINTW1FN _0x0,629
000a70 940e 17f2 	CALL SUBOPT_0x6
                 ; 0000 0321                         if(!s2){rencana1();}}
000a72 9b9a      	SBIS 0x13,2
000a73 dccb      	RCALL _rencana1
                 ; 0000 0322                 if(n==13){
                 _0x1AD:
000a74 e0ed      	LDI  R30,LOW(13)
000a75 e0f0      	LDI  R31,HIGH(13)
000a76 17e0      	CP   R30,R16
000a77 07f1      	CPC  R31,R17
000a78 f441      	BRNE _0x1AF
                 ; 0000 0323                         lcd_gotoxy(0,1);
000a79 940e 185f 	CALL SUBOPT_0x13
                 ; 0000 0324                         lcd_putsf("12.Atur CP");
                +
000a7b efe1     +LDI R30 , LOW ( 2 * _0x0 + ( 647 ) )
000a7c e0f2     +LDI R31 , HIGH ( 2 * _0x0 + ( 647 ) )
                 	__POINTW1FN _0x0,647
000a7d 940e 17f2 	CALL SUBOPT_0x6
                 ; 0000 0325                         if(!s2){rencana2();}}
000a7f 9b9a      	SBIS 0x13,2
000a80 dd23      	RCALL _rencana2
                 ; 0000 0326                 if(n==14){
                 _0x1AF:
000a81 e0ee      	LDI  R30,LOW(14)
000a82 e0f0      	LDI  R31,HIGH(14)
000a83 17e0      	CP   R30,R16
000a84 07f1      	CPC  R31,R17
000a85 f4e1      	BRNE _0x1B1
                 ; 0000 0327                         lcd_gotoxy(0,1);
000a86 940e 185f 	CALL SUBOPT_0x13
                 ; 0000 0328                         if(mode==1){lcd_putsf("13.[Counter] Normal ");}
000a88 91a0 0451 	LDS  R26,_mode
000a8a 30a1      	CPI  R26,LOW(0x1)
000a8b f421      	BRNE _0x1B2
                +
000a8c efec     +LDI R30 , LOW ( 2 * _0x0 + ( 658 ) )
000a8d e0f2     +LDI R31 , HIGH ( 2 * _0x0 + ( 658 ) )
                 	__POINTW1FN _0x0,658
000a8e 940e 17f2 	CALL SUBOPT_0x6
                 ; 0000 0329                         if(mode==0){lcd_putsf("13.Jalan Aja");}
                 _0x1B2:
000a90 91e0 0451 	LDS  R30,_mode
000a92 30e0      	CPI  R30,0
000a93 f421      	BRNE _0x1B3
                +
000a94 e1e1     +LDI R30 , LOW ( 2 * _0x0 + ( 679 ) )
000a95 e0f3     +LDI R31 , HIGH ( 2 * _0x0 + ( 679 ) )
                 	__POINTW1FN _0x0,679
000a96 940e 17f2 	CALL SUBOPT_0x6
                 ; 0000 032A                         if(!s2){mode=0;}
                 _0x1B3:
000a98 999a      	SBIC 0x13,2
000a99 c003      	RJMP _0x1B4
000a9a e0e0      	LDI  R30,LOW(0)
000a9b 93e0 0451 	STS  _mode,R30
                 ; 0000 032B                         if(!s3){mode=1;}
                 _0x1B4:
000a9d 999b      	SBIC 0x13,3
000a9e c003      	RJMP _0x1B5
000a9f e0e1      	LDI  R30,LOW(1)
000aa0 93e0 0451 	STS  _mode,R30
                 ; 0000 032C                         }
                 _0x1B5:
                 ; 0000 032D                 if(n==15){
                 _0x1B1:
000aa2 e0ef      	LDI  R30,LOW(15)
000aa3 e0f0      	LDI  R31,HIGH(15)
000aa4 17e0      	CP   R30,R16
000aa5 07f1      	CPC  R31,R17
000aa6 f4e1      	BRNE _0x1B6
                 ; 0000 032E                         lcd_gotoxy(0,1);
000aa7 940e 185f 	CALL SUBOPT_0x13
                 ; 0000 032F                         if(modekanan==1){lcd_putsf("14.Counter 2 ");}
000aa9 91a0 0584 	LDS  R26,_modekanan
000aab 30a1      	CPI  R26,LOW(0x1)
000aac f421      	BRNE _0x1B7
                +
000aad e1ee     +LDI R30 , LOW ( 2 * _0x0 + ( 692 ) )
000aae e0f3     +LDI R31 , HIGH ( 2 * _0x0 + ( 692 ) )
                 	__POINTW1FN _0x0,692
000aaf 940e 17f2 	CALL SUBOPT_0x6
                 ; 0000 0330                         if(modekanan==0){lcd_putsf("14.Counter 1 ");}
                 _0x1B7:
000ab1 91e0 0584 	LDS  R30,_modekanan
000ab3 30e0      	CPI  R30,0
000ab4 f421      	BRNE _0x1B8
                +
000ab5 e2ec     +LDI R30 , LOW ( 2 * _0x0 + ( 706 ) )
000ab6 e0f3     +LDI R31 , HIGH ( 2 * _0x0 + ( 706 ) )
                 	__POINTW1FN _0x0,706
000ab7 940e 17f2 	CALL SUBOPT_0x6
                 ; 0000 0331                         if(!s2){modekanan=1;}
                 _0x1B8:
000ab9 999a      	SBIC 0x13,2
000aba c003      	RJMP _0x1B9
000abb e0e1      	LDI  R30,LOW(1)
000abc 93e0 0584 	STS  _modekanan,R30
                 ; 0000 0332                         if(!s3){modekanan=0;}}
                 _0x1B9:
000abe 999b      	SBIC 0x13,3
000abf c003      	RJMP _0x1BA
000ac0 e0e0      	LDI  R30,LOW(0)
000ac1 93e0 0584 	STS  _modekanan,R30
                 _0x1BA:
                 ; 0000 0333                 if(n==16){
                 _0x1B6:
000ac3 e1e0      	LDI  R30,LOW(16)
000ac4 e0f0      	LDI  R31,HIGH(16)
000ac5 17e0      	CP   R30,R16
000ac6 07f1      	CPC  R31,R17
000ac7 f549      	BRNE _0x1BB
                 ; 0000 0334                         sprintf(buff,"15.Smoothing=%d   ", pulsa);
000ac8 940e 186d 	CALL SUBOPT_0x16
                +
000aca e3ea     +LDI R30 , LOW ( 2 * _0x0 + ( 720 ) )
000acb e0f3     +LDI R31 , HIGH ( 2 * _0x0 + ( 720 ) )
                 	__POINTW1FN _0x0,720
000acc 93fa      	ST   -Y,R31
000acd 93ea      	ST   -Y,R30
000ace 91e0 028c 	LDS  R30,_pulsa
000ad0 940e 1872 	CALL SUBOPT_0x17
000ad2 940e 189c 	CALL SUBOPT_0x1E
                 ; 0000 0335                         lcd_gotoxy(0,1);
                 ; 0000 0336                         lcd_puts(buff);
000ad4 940e 186d 	CALL SUBOPT_0x16
000ad6 940e 176d 	CALL _lcd_puts
                 ; 0000 0337                         if(!s2){
000ad8 999a      	SBIC 0x13,2
000ad9 c00d      	RJMP _0x1BC
                 ; 0000 0338                         pulsa=pulsa+1;if (pulsa>255){pulsa=0;}}
000ada 91e0 028c 	LDS  R30,_pulsa
000adc 5fef      	SUBI R30,-LOW(1)
000add 93e0 028c 	STS  _pulsa,R30
000adf 91a0 028c 	LDS  R26,_pulsa
000ae1 efef      	LDI  R30,LOW(255)
000ae2 17ea      	CP   R30,R26
000ae3 f418      	BRSH _0x1BD
000ae4 e0e0      	LDI  R30,LOW(0)
000ae5 93e0 028c 	STS  _pulsa,R30
                 _0x1BD:
                 ; 0000 0339                         if(!s3){pulsa=pulsa-1;if (pulsa<0){pulsa=255;}}}
                 _0x1BC:
000ae7 999b      	SBIC 0x13,3
000ae8 c008      	RJMP _0x1BE
000ae9 91e0 028c 	LDS  R30,_pulsa
000aeb 940e 18a6 	CALL SUBOPT_0x20
000aed 93e0 028c 	STS  _pulsa,R30
000aef 91a0 028c 	LDS  R26,_pulsa
                 _0x1BE:
                 ; 0000 033A                 if(n==17){
                 _0x1BB:
000af1 e1e1      	LDI  R30,LOW(17)
000af2 e0f0      	LDI  R31,HIGH(17)
000af3 17e0      	CP   R30,R16
000af4 07f1      	CPC  R31,R17
000af5 f441      	BRNE _0x1C0
                 ; 0000 033B                         lcd_gotoxy(0,1);
000af6 940e 185f 	CALL SUBOPT_0x13
                 ; 0000 033C                         lcd_putsf("16.Cek Sensor");
                +
000af8 e4ed     +LDI R30 , LOW ( 2 * _0x0 + ( 739 ) )
000af9 e0f3     +LDI R31 , HIGH ( 2 * _0x0 + ( 739 ) )
                 	__POINTW1FN _0x0,739
000afa 940e 17f2 	CALL SUBOPT_0x6
                 ; 0000 033D                         if(!s2){ceksensor();}}
000afc 9b9a      	SBIS 0x13,2
000afd dd0b      	RCALL _ceksensor
                 ; 0000 033E                 if(n==18){
                 _0x1C0:
000afe e1e2      	LDI  R30,LOW(18)
000aff e0f0      	LDI  R31,HIGH(18)
000b00 17e0      	CP   R30,R16
000b01 07f1      	CPC  R31,R17
000b02 f579      	BRNE _0x1C2
                 ; 0000 033F                         sprintf(buff,"17.Rem =%d   ",lc1);
000b03 940e 186d 	CALL SUBOPT_0x16
                +
000b05 e5eb     +LDI R30 , LOW ( 2 * _0x0 + ( 753 ) )
000b06 e0f3     +LDI R31 , HIGH ( 2 * _0x0 + ( 753 ) )
                 	__POINTW1FN _0x0,753
000b07 93fa      	ST   -Y,R31
000b08 93ea      	ST   -Y,R30
000b09 940e 195d 	CALL SUBOPT_0x3E
000b0b 940e 193e 	CALL SUBOPT_0x39
                 ; 0000 0340                         lcd_gotoxy(0,1);
                 ; 0000 0341                         lcd_puts(buff);
000b0d 940e 186d 	CALL SUBOPT_0x16
000b0f 940e 176d 	CALL _lcd_puts
                 ; 0000 0342                         if(!s2){lc1=lc1+5;
000b11 999a      	SBIC 0x13,2
000b12 c010      	RJMP _0x1C3
000b13 940e 195d 	CALL SUBOPT_0x3E
000b15 9635      	ADIW R30,5
000b16 940e 1962 	CALL SUBOPT_0x3F
                 ; 0000 0343                         if (lc1>255){lc1=0;}}
000b18 940e 1967 	CALL SUBOPT_0x40
000b1a 30a0      	CPI  R26,LOW(0x100)
000b1b e0e1      	LDI  R30,HIGH(0x100)
000b1c 07be      	CPC  R27,R30
000b1d f02c      	BRLT _0x1C4
000b1e e0e0      	LDI  R30,LOW(0)
000b1f 93e0 0285 	STS  _lc1,R30
000b21 93e0 0286 	STS  _lc1+1,R30
                 _0x1C4:
                 ; 0000 0344                         if(!s3){lc1=lc1-5;
                 _0x1C3:
000b23 999b      	SBIC 0x13,3
000b24 c00d      	RJMP _0x1C5
000b25 940e 195d 	CALL SUBOPT_0x3E
000b27 9735      	SBIW R30,5
000b28 940e 1962 	CALL SUBOPT_0x3F
                 ; 0000 0345                         if (lc1<0){lc1=255;}}}
000b2a 91a0 0286 	LDS  R26,_lc1+1
000b2c 23aa      	TST  R26
000b2d f422      	BRPL _0x1C6
000b2e efef      	LDI  R30,LOW(255)
000b2f e0f0      	LDI  R31,HIGH(255)
000b30 940e 1962 	CALL SUBOPT_0x3F
                 _0x1C6:
                 _0x1C5:
                 ; 0000 0346                 if(n==0){
                 _0x1C2:
000b32 2e00      	MOV  R0,R16
000b33 2a01      	OR   R0,R17
000b34 f5c9      	BRNE _0x1C7
                 ; 0000 0347 
                 ; 0000 0348                         lcd_gotoxy(0,1);
000b35 940e 185f 	CALL SUBOPT_0x13
                 ; 0000 0349                         if(encomp==2){lcd_putsf("18.White Line ");}
000b37 940e 196c 	CALL SUBOPT_0x41
000b39 9712      	SBIW R26,2
000b3a f421      	BRNE _0x1C8
                +
000b3b e6e9     +LDI R30 , LOW ( 2 * _0x0 + ( 767 ) )
000b3c e0f3     +LDI R31 , HIGH ( 2 * _0x0 + ( 767 ) )
                 	__POINTW1FN _0x0,767
000b3d 940e 17f2 	CALL SUBOPT_0x6
                 ; 0000 034A                         if(encomp==1){lcd_putsf("18.Black Line ");}
                 _0x1C8:
000b3f 940e 196c 	CALL SUBOPT_0x41
000b41 9711      	SBIW R26,1
000b42 f421      	BRNE _0x1C9
                +
000b43 e7e8     +LDI R30 , LOW ( 2 * _0x0 + ( 782 ) )
000b44 e0f3     +LDI R31 , HIGH ( 2 * _0x0 + ( 782 ) )
                 	__POINTW1FN _0x0,782
000b45 940e 17f2 	CALL SUBOPT_0x6
                 ; 0000 034B                         if(encomp==0){lcd_putsf("18.Auto Line  ");}
                 _0x1C9:
000b47 940e 1971 	CALL SUBOPT_0x42
000b49 9730      	SBIW R30,0
000b4a f421      	BRNE _0x1CA
                +
000b4b e8e7     +LDI R30 , LOW ( 2 * _0x0 + ( 797 ) )
000b4c e0f3     +LDI R31 , HIGH ( 2 * _0x0 + ( 797 ) )
                 	__POINTW1FN _0x0,797
000b4d 940e 17f2 	CALL SUBOPT_0x6
                 ; 0000 034C                         if(!s2){encomp=encomp+1;if (encomp>2){encomp=0;}}
                 _0x1CA:
000b4f 999a      	SBIC 0x13,2
000b50 c00e      	RJMP _0x1CB
000b51 940e 1971 	CALL SUBOPT_0x42
000b53 9631      	ADIW R30,1
000b54 940e 1976 	CALL SUBOPT_0x43
000b56 940e 196c 	CALL SUBOPT_0x41
000b58 9713      	SBIW R26,3
000b59 f02c      	BRLT _0x1CC
000b5a e0e0      	LDI  R30,LOW(0)
000b5b 93e0 0283 	STS  _encomp,R30
000b5d 93e0 0284 	STS  _encomp+1,R30
                 _0x1CC:
                 ; 0000 034D                         if(!s3){encomp=encomp-1;if (encomp<0){encomp=2;}}}
                 _0x1CB:
000b5f 999b      	SBIC 0x13,3
000b60 c00d      	RJMP _0x1CD
000b61 940e 1971 	CALL SUBOPT_0x42
000b63 9731      	SBIW R30,1
000b64 940e 1976 	CALL SUBOPT_0x43
000b66 91a0 0284 	LDS  R26,_encomp+1
000b68 23aa      	TST  R26
000b69 f422      	BRPL _0x1CE
000b6a e0e2      	LDI  R30,LOW(2)
000b6b e0f0      	LDI  R31,HIGH(2)
000b6c 940e 1976 	CALL SUBOPT_0x43
                 _0x1CE:
                 _0x1CD:
                 ; 0000 034E 
                 ; 0000 034F         if(!s4){
                 _0x1C7:
000b6e 999c      	SBIC 0x13,4
000b6f c076      	RJMP _0x1CF
                 ; 0000 0350                 if(pulsa!=epulsa){epulsa=pulsa;}
000b70 e9a9      	LDI  R26,LOW(_epulsa)
000b71 e0b2      	LDI  R27,HIGH(_epulsa)
000b72 940e 1af4 	CALL __EEPROMRDB
000b74 91a0 028c 	LDS  R26,_pulsa
000b76 17ea      	CP   R30,R26
000b77 f031      	BREQ _0x1D0
000b78 91e0 028c 	LDS  R30,_pulsa
000b7a e9a9      	LDI  R26,LOW(_epulsa)
000b7b e0b2      	LDI  R27,HIGH(_epulsa)
000b7c 940e 1b00 	CALL __EEPROMWRB
                 ; 0000 0351                 if(mode!=emode){emode=mode;}
                 _0x1D0:
000b7e e9a7      	LDI  R26,LOW(_emode)
000b7f e0b2      	LDI  R27,HIGH(_emode)
000b80 940e 1af4 	CALL __EEPROMRDB
000b82 91a0 0451 	LDS  R26,_mode
000b84 17ea      	CP   R30,R26
000b85 f031      	BREQ _0x1D1
000b86 91e0 0451 	LDS  R30,_mode
000b88 e9a7      	LDI  R26,LOW(_emode)
000b89 e0b2      	LDI  R27,HIGH(_emode)
000b8a 940e 1b00 	CALL __EEPROMWRB
                 ; 0000 0352                 if(modekanan!=emodekanan){emodekanan=modekanan;}
                 _0x1D1:
000b8c e9a8      	LDI  R26,LOW(_emodekanan)
000b8d e0b2      	LDI  R27,HIGH(_emodekanan)
000b8e 940e 1af4 	CALL __EEPROMRDB
000b90 91a0 0584 	LDS  R26,_modekanan
000b92 17ea      	CP   R30,R26
000b93 f031      	BREQ _0x1D2
000b94 91e0 0584 	LDS  R30,_modekanan
000b96 e9a8      	LDI  R26,LOW(_emodekanan)
000b97 e0b2      	LDI  R27,HIGH(_emodekanan)
000b98 940e 1b00 	CALL __EEPROMWRB
                 ; 0000 0353                 if(lc!=elc){elc=lc;}
                 _0x1D2:
000b9a e9ad      	LDI  R26,LOW(_elc)
000b9b e0b2      	LDI  R27,HIGH(_elc)
000b9c 940e 1af4 	CALL __EEPROMRDB
000b9e 01d6      	MOVW R26,R12
000b9f 940e 197b 	CALL SUBOPT_0x44
000ba1 f029      	BREQ _0x1D3
000ba2 2dec      	MOV  R30,R12
000ba3 e9ad      	LDI  R26,LOW(_elc)
000ba4 e0b2      	LDI  R27,HIGH(_elc)
000ba5 940e 1b00 	CALL __EEPROMWRB
                 ; 0000 0354                 if(lc1!=elc1){elc1=lc1;}
                 _0x1D3:
000ba7 e9ae      	LDI  R26,LOW(_elc1)
000ba8 e0b2      	LDI  R27,HIGH(_elc1)
000ba9 940e 1af4 	CALL __EEPROMRDB
000bab 940e 1967 	CALL SUBOPT_0x40
000bad 940e 197b 	CALL SUBOPT_0x44
000baf f031      	BREQ _0x1D4
000bb0 91e0 0285 	LDS  R30,_lc1
000bb2 e9ae      	LDI  R26,LOW(_elc1)
000bb3 e0b2      	LDI  R27,HIGH(_elc1)
000bb4 940e 1b00 	CALL __EEPROMWRB
                 ; 0000 0355                 if(vc!=evc){evc=vc;}
                 _0x1D4:
000bb6 e9af      	LDI  R26,LOW(_evc)
000bb7 e0b2      	LDI  R27,HIGH(_evc)
000bb8 940e 1af4 	CALL __EEPROMRDB
000bba 91a0 0279 	LDS  R26,_vc
000bbc 91b0 027a 	LDS  R27,_vc+1
000bbe 940e 197b 	CALL SUBOPT_0x44
000bc0 f031      	BREQ _0x1D5
000bc1 91e0 0279 	LDS  R30,_vc
000bc3 e9af      	LDI  R26,LOW(_evc)
000bc4 e0b2      	LDI  R27,HIGH(_evc)
000bc5 940e 1b00 	CALL __EEPROMWRB
                 ; 0000 0356                 if(max1!=emax1){emax1=max1;}
                 _0x1D5:
000bc7 eaa0      	LDI  R26,LOW(_emax1)
000bc8 e0b2      	LDI  R27,HIGH(_emax1)
000bc9 940e 1af4 	CALL __EEPROMRDB
000bcb 01d4      	MOVW R26,R8
000bcc 940e 197b 	CALL SUBOPT_0x44
000bce f029      	BREQ _0x1D6
000bcf 2de8      	MOV  R30,R8
000bd0 eaa0      	LDI  R26,LOW(_emax1)
000bd1 e0b2      	LDI  R27,HIGH(_emax1)
000bd2 940e 1b00 	CALL __EEPROMWRB
                 ; 0000 0357                 if(encomp!=eencomp){eencomp=encomp;}
                 _0x1D6:
000bd4 e9a6      	LDI  R26,LOW(_eencomp)
000bd5 e0b2      	LDI  R27,HIGH(_eencomp)
000bd6 940e 1af4 	CALL __EEPROMRDB
000bd8 940e 196c 	CALL SUBOPT_0x41
000bda 940e 197b 	CALL SUBOPT_0x44
000bdc f031      	BREQ _0x1D7
000bdd 91e0 0283 	LDS  R30,_encomp
000bdf e9a6      	LDI  R26,LOW(_eencomp)
000be0 e0b2      	LDI  R27,HIGH(_eencomp)
000be1 940e 1b00 	CALL __EEPROMWRB
                 ; 0000 0358                 saved();
                 _0x1D7:
000be3 940e 029a 	CALL _saved
                 ; 0000 0359                 break;}
000be5 c003      	RJMP _0x170
                 ; 0000 035A delay_ms(150);
                 _0x1CF:
000be6 940e 18f6 	CALL SUBOPT_0x2F
                 ; 0000 035B }
000be8 ccd0      	RJMP _0x16E
                 _0x170:
                 ; 0000 035C }
                 _0x2080005:
000be9 9109      	LD   R16,Y+
000bea 9119      	LD   R17,Y+
000beb 9508      	RET
                 ;
                 ;//-------------fungsi scansensor--------//
                 ;void scansensor()
                 ; 0000 0360 {
                 _scansensor:
                 ; 0000 0361 if(sensitive[adc]<in){sen=0;sm=0;}
000bec 940e 197f 	CALL SUBOPT_0x45
000bee 81a0      	LD   R26,Z
000bef 91e0 0593 	LDS  R30,_in
000bf1 17ae      	CP   R26,R30
000bf2 f448      	BRSH _0x1D8
000bf3 e0e0      	LDI  R30,LOW(0)
000bf4 93e0 05bc 	STS  _sen,R30
000bf6 93e0 05bd 	STS  _sen+1,R30
000bf8 93e0 05be 	STS  _sm,R30
000bfa 93e0 05bf 	STS  _sm+1,R30
                 ; 0000 0362 dep=0;
                 _0x1D8:
000bfc e0e0      	LDI  R30,LOW(0)
000bfd 93e0 05b8 	STS  _dep,R30
000bff 93e0 05b9 	STS  _dep+1,R30
                 ; 0000 0363 sam=0;
000c01 93e0 0595 	STS  _sam,R30
                 ; 0000 0364 sam1=0;
000c03 93e0 0597 	STS  _sam1,R30
                 ; 0000 0365         for(adc=0;adc<=6;adc++){
000c05 93e0 0594 	STS  _adc,R30
                 _0x1DA:
000c07 91a0 0594 	LDS  R26,_adc
000c09 30a7      	CPI  R26,LOW(0x7)
000c0a f010      	BRLO PC+3
000c0b 940c 0cba 	JMP _0x1DB
                 ; 0000 0366         in=read_adc(adc+1);
000c0d 91e0 0594 	LDS  R30,_adc
000c0f 5fef      	SUBI R30,-LOW(1)
000c10 93ea      	ST   -Y,R30
000c11 940e 1930 	CALL SUBOPT_0x37
                 ; 0000 0367         L=1;
000c13 9aaf      	SBI  0x15,7
                 ; 0000 0368         R=0;
000c14 98ae      	CBI  0x15,6
                 ; 0000 0369 if(adc==0){
000c15 91e0 0594 	LDS  R30,_adc
000c17 30e0      	CPI  R30,0
000c18 f499      	BRNE _0x1E0
                 ; 0000 036A         lcd_gotoxy(8,0);
000c19 e0e8      	LDI  R30,LOW(8)
000c1a 940e 1985 	CALL SUBOPT_0x46
                 ; 0000 036B         if(in>sensitive[adc]){
000c1c 940e 198b 	CALL SUBOPT_0x47
000c1e f458      	BRSH _0x1E1
                 ; 0000 036C         dep=dep+64;
000c1f 940e 1990 	CALL SUBOPT_0x48
000c21 5ce0      	SUBI R30,LOW(-64)
000c22 4fff      	SBCI R31,HIGH(-64)
000c23 940e 1995 	CALL SUBOPT_0x49
                 ; 0000 036D         lcd_putchar(0xff);sen=8;
000c25 e0e8      	LDI  R30,LOW(8)
000c26 e0f0      	LDI  R31,HIGH(8)
000c27 940e 199a 	CALL SUBOPT_0x4A
                 ; 0000 036E         }
                 ; 0000 036F         else lcd_putchar(0x5f);
000c29 c002      	RJMP _0x1E2
                 _0x1E1:
000c2a 940e 17dd 	CALL SUBOPT_0x2
                 ; 0000 0370         }
                 _0x1E2:
                 ; 0000 0371 if(adc==1){
                 _0x1E0:
000c2c 91a0 0594 	LDS  R26,_adc
000c2e 30a1      	CPI  R26,LOW(0x1)
000c2f f499      	BRNE _0x1E3
                 ; 0000 0372         lcd_gotoxy(6,0);
000c30 e0e6      	LDI  R30,LOW(6)
000c31 940e 1985 	CALL SUBOPT_0x46
                 ; 0000 0373         if(in>sensitive[adc]){
000c33 940e 198b 	CALL SUBOPT_0x47
000c35 f458      	BRSH _0x1E4
                 ; 0000 0374         dep=dep+128;
000c36 940e 1990 	CALL SUBOPT_0x48
000c38 58e0      	SUBI R30,LOW(-128)
000c39 4fff      	SBCI R31,HIGH(-128)
000c3a 940e 1995 	CALL SUBOPT_0x49
                 ; 0000 0375         lcd_putchar(0xff);sen=6;
000c3c e0e6      	LDI  R30,LOW(6)
000c3d e0f0      	LDI  R31,HIGH(6)
000c3e 940e 199a 	CALL SUBOPT_0x4A
                 ; 0000 0376         }
                 ; 0000 0377         else lcd_putchar(0x5f);
000c40 c002      	RJMP _0x1E5
                 _0x1E4:
000c41 940e 17dd 	CALL SUBOPT_0x2
                 ; 0000 0378         }
                 _0x1E5:
                 ; 0000 0379 if(adc==2){
                 _0x1E3:
000c43 91a0 0594 	LDS  R26,_adc
000c45 30a2      	CPI  R26,LOW(0x2)
000c46 f499      	BRNE _0x1E6
                 ; 0000 037A         lcd_gotoxy(5,0);
000c47 e0e5      	LDI  R30,LOW(5)
000c48 940e 1985 	CALL SUBOPT_0x46
                 ; 0000 037B         if(in>sensitive[adc]){
000c4a 940e 198b 	CALL SUBOPT_0x47
000c4c f458      	BRSH _0x1E7
                 ; 0000 037C         dep=dep+256;
000c4d 940e 1990 	CALL SUBOPT_0x48
000c4f 50e0      	SUBI R30,LOW(-256)
000c50 4fff      	SBCI R31,HIGH(-256)
000c51 940e 1995 	CALL SUBOPT_0x49
                 ; 0000 037D         lcd_putchar(0xff);sen=5;
000c53 e0e5      	LDI  R30,LOW(5)
000c54 e0f0      	LDI  R31,HIGH(5)
000c55 940e 199a 	CALL SUBOPT_0x4A
                 ; 0000 037E         }
                 ; 0000 037F         else lcd_putchar(0x5f);
000c57 c002      	RJMP _0x1E8
                 _0x1E7:
000c58 940e 17dd 	CALL SUBOPT_0x2
                 ; 0000 0380         }
                 _0x1E8:
                 ; 0000 0381 if(adc==3){
                 _0x1E6:
000c5a 91a0 0594 	LDS  R26,_adc
000c5c 30a3      	CPI  R26,LOW(0x3)
000c5d f499      	BRNE _0x1E9
                 ; 0000 0382         lcd_gotoxy(4,0);
000c5e e0e4      	LDI  R30,LOW(4)
000c5f 940e 1985 	CALL SUBOPT_0x46
                 ; 0000 0383         if(in>sensitive[adc]){
000c61 940e 198b 	CALL SUBOPT_0x47
000c63 f458      	BRSH _0x1EA
                 ; 0000 0384         dep=dep+512;
000c64 940e 1990 	CALL SUBOPT_0x48
000c66 50e0      	SUBI R30,LOW(-512)
000c67 4ffe      	SBCI R31,HIGH(-512)
000c68 940e 1995 	CALL SUBOPT_0x49
                 ; 0000 0385         lcd_putchar(0xff);sen=4;
000c6a e0e4      	LDI  R30,LOW(4)
000c6b e0f0      	LDI  R31,HIGH(4)
000c6c 940e 199a 	CALL SUBOPT_0x4A
                 ; 0000 0386         }
                 ; 0000 0387         else lcd_putchar(0x5f);
000c6e c002      	RJMP _0x1EB
                 _0x1EA:
000c6f 940e 17dd 	CALL SUBOPT_0x2
                 ; 0000 0388         }
                 _0x1EB:
                 ; 0000 0389 if(adc==4){
                 _0x1E9:
000c71 91a0 0594 	LDS  R26,_adc
000c73 30a4      	CPI  R26,LOW(0x4)
000c74 f499      	BRNE _0x1EC
                 ; 0000 038A         lcd_gotoxy(3,0);
000c75 e0e3      	LDI  R30,LOW(3)
000c76 940e 1985 	CALL SUBOPT_0x46
                 ; 0000 038B         if(in>sensitive[adc]){
000c78 940e 198b 	CALL SUBOPT_0x47
000c7a f458      	BRSH _0x1ED
                 ; 0000 038C         dep=dep+1024;
000c7b 940e 1990 	CALL SUBOPT_0x48
000c7d 50e0      	SUBI R30,LOW(-1024)
000c7e 4ffc      	SBCI R31,HIGH(-1024)
000c7f 940e 1995 	CALL SUBOPT_0x49
                 ; 0000 038D         lcd_putchar(0xff);sen=3;
000c81 e0e3      	LDI  R30,LOW(3)
000c82 e0f0      	LDI  R31,HIGH(3)
000c83 940e 199a 	CALL SUBOPT_0x4A
                 ; 0000 038E         }
                 ; 0000 038F         else lcd_putchar(0x5f);
000c85 c002      	RJMP _0x1EE
                 _0x1ED:
000c86 940e 17dd 	CALL SUBOPT_0x2
                 ; 0000 0390         }
                 _0x1EE:
                 ; 0000 0391 if(adc==5){
                 _0x1EC:
000c88 91a0 0594 	LDS  R26,_adc
000c8a 30a5      	CPI  R26,LOW(0x5)
000c8b f499      	BRNE _0x1EF
                 ; 0000 0392         lcd_gotoxy(2,0);
000c8c e0e2      	LDI  R30,LOW(2)
000c8d 940e 1985 	CALL SUBOPT_0x46
                 ; 0000 0393         if(in>sensitive[adc]){
000c8f 940e 198b 	CALL SUBOPT_0x47
000c91 f458      	BRSH _0x1F0
                 ; 0000 0394         dep=dep+2024;
000c92 940e 1990 	CALL SUBOPT_0x48
000c94 51e8      	SUBI R30,LOW(-2024)
000c95 4ff8      	SBCI R31,HIGH(-2024)
000c96 940e 1995 	CALL SUBOPT_0x49
                 ; 0000 0395         lcd_putchar(0xff);sen=2;
000c98 e0e2      	LDI  R30,LOW(2)
000c99 e0f0      	LDI  R31,HIGH(2)
000c9a 940e 199a 	CALL SUBOPT_0x4A
                 ; 0000 0396         }
                 ; 0000 0397         else lcd_putchar(0x5f);
000c9c c002      	RJMP _0x1F1
                 _0x1F0:
000c9d 940e 17dd 	CALL SUBOPT_0x2
                 ; 0000 0398         }
                 _0x1F1:
                 ; 0000 0399 if(adc==6){
                 _0x1EF:
000c9f 91a0 0594 	LDS  R26,_adc
000ca1 30a6      	CPI  R26,LOW(0x6)
000ca2 f4a1      	BRNE _0x1F2
                 ; 0000 039A         lcd_gotoxy(1,0);
000ca3 e0e1      	LDI  R30,LOW(1)
000ca4 940e 1985 	CALL SUBOPT_0x46
                 ; 0000 039B         if(in>sensitive[adc]){
000ca6 940e 198b 	CALL SUBOPT_0x47
000ca8 f460      	BRSH _0x1F3
                 ; 0000 039C         sam=sam+2;
000ca9 91e0 0595 	LDS  R30,_sam
000cab 5fee      	SUBI R30,-LOW(2)
000cac 93e0 0595 	STS  _sam,R30
                 ; 0000 039D         lcd_putchar(0xff);sen=1;
000cae 940e 17e7 	CALL SUBOPT_0x4
000cb0 e0e1      	LDI  R30,LOW(1)
000cb1 e0f0      	LDI  R31,HIGH(1)
000cb2 940e 199a 	CALL SUBOPT_0x4A
                 ; 0000 039E         }
                 ; 0000 039F         else lcd_putchar(0x5f);
000cb4 c002      	RJMP _0x1F4
                 _0x1F3:
000cb5 940e 17dd 	CALL SUBOPT_0x2
                 ; 0000 03A0         }
                 _0x1F4:
                 ; 0000 03A1 }
                 _0x1F2:
000cb7 940e 199f 	CALL SUBOPT_0x4B
000cb9 cf4d      	RJMP _0x1DA
                 _0x1DB:
                 ; 0000 03A2 for(adc=7;adc<=13;adc++){
000cba e0e7      	LDI  R30,LOW(7)
000cbb 93e0 0594 	STS  _adc,R30
                 _0x1F6:
000cbd 91a0 0594 	LDS  R26,_adc
000cbf 30ae      	CPI  R26,LOW(0xE)
000cc0 f010      	BRLO PC+3
000cc1 940c 0d6b 	JMP _0x1F7
                 ; 0000 03A3         in=read_adc(adc-6);
000cc3 91e0 0594 	LDS  R30,_adc
000cc5 e0f0      	LDI  R31,0
000cc6 9736      	SBIW R30,6
000cc7 93ea      	ST   -Y,R30
000cc8 940e 1930 	CALL SUBOPT_0x37
                 ; 0000 03A4         L=0;
000cca 98af      	CBI  0x15,7
                 ; 0000 03A5         R=1;
000ccb 9aae      	SBI  0x15,6
                 ; 0000 03A6 if(adc==7){
000ccc 91a0 0594 	LDS  R26,_adc
000cce 30a7      	CPI  R26,LOW(0x7)
000ccf f491      	BRNE _0x1FC
                 ; 0000 03A7         lcd_gotoxy(7,0);
000cd0 e0e7      	LDI  R30,LOW(7)
000cd1 940e 1985 	CALL SUBOPT_0x46
                 ; 0000 03A8         if(in>sensitive[adc]){
000cd3 940e 198b 	CALL SUBOPT_0x47
000cd5 f450      	BRSH _0x1FD
                 ; 0000 03A9         dep=dep+32;
000cd6 940e 1990 	CALL SUBOPT_0x48
000cd8 96b0      	ADIW R30,32
000cd9 940e 1995 	CALL SUBOPT_0x49
                 ; 0000 03AA         lcd_putchar(0xff);sen=7;
000cdb e0e7      	LDI  R30,LOW(7)
000cdc e0f0      	LDI  R31,HIGH(7)
000cdd 940e 199a 	CALL SUBOPT_0x4A
                 ; 0000 03AB         }
                 ; 0000 03AC         else lcd_putchar(0x5f);
000cdf c002      	RJMP _0x1FE
                 _0x1FD:
000ce0 940e 17dd 	CALL SUBOPT_0x2
                 ; 0000 03AD         }
                 _0x1FE:
                 ; 0000 03AE if(adc==8){
                 _0x1FC:
000ce2 91a0 0594 	LDS  R26,_adc
000ce4 30a8      	CPI  R26,LOW(0x8)
000ce5 f491      	BRNE _0x1FF
                 ; 0000 03AF         lcd_gotoxy(9,0);
000ce6 e0e9      	LDI  R30,LOW(9)
000ce7 940e 1985 	CALL SUBOPT_0x46
                 ; 0000 03B0         if(in>sensitive[adc]){
000ce9 940e 198b 	CALL SUBOPT_0x47
000ceb f450      	BRSH _0x200
                 ; 0000 03B1         dep=dep+16;
000cec 940e 1990 	CALL SUBOPT_0x48
000cee 9670      	ADIW R30,16
000cef 940e 1995 	CALL SUBOPT_0x49
                 ; 0000 03B2         lcd_putchar(0xff);sen=9;
000cf1 e0e9      	LDI  R30,LOW(9)
000cf2 e0f0      	LDI  R31,HIGH(9)
000cf3 940e 199a 	CALL SUBOPT_0x4A
                 ; 0000 03B3         }
                 ; 0000 03B4         else lcd_putchar(0x5f);
000cf5 c002      	RJMP _0x201
                 _0x200:
000cf6 940e 17dd 	CALL SUBOPT_0x2
                 ; 0000 03B5         }
                 _0x201:
                 ; 0000 03B6 if(adc==9){
                 _0x1FF:
000cf8 91a0 0594 	LDS  R26,_adc
000cfa 30a9      	CPI  R26,LOW(0x9)
000cfb f491      	BRNE _0x202
                 ; 0000 03B7         lcd_gotoxy(10,0);
000cfc e0ea      	LDI  R30,LOW(10)
000cfd 940e 1985 	CALL SUBOPT_0x46
                 ; 0000 03B8         if(in>sensitive[adc]){
000cff 940e 198b 	CALL SUBOPT_0x47
000d01 f450      	BRSH _0x203
                 ; 0000 03B9         dep=dep+8;
000d02 940e 1990 	CALL SUBOPT_0x48
000d04 9638      	ADIW R30,8
000d05 940e 1995 	CALL SUBOPT_0x49
                 ; 0000 03BA         lcd_putchar(0xff);sen=10;
000d07 e0ea      	LDI  R30,LOW(10)
000d08 e0f0      	LDI  R31,HIGH(10)
000d09 940e 199a 	CALL SUBOPT_0x4A
                 ; 0000 03BB         }
                 ; 0000 03BC         else lcd_putchar(0x5f);
000d0b c002      	RJMP _0x204
                 _0x203:
000d0c 940e 17dd 	CALL SUBOPT_0x2
                 ; 0000 03BD         }
                 _0x204:
                 ; 0000 03BE if(adc==10){
                 _0x202:
000d0e 91a0 0594 	LDS  R26,_adc
000d10 30aa      	CPI  R26,LOW(0xA)
000d11 f491      	BRNE _0x205
                 ; 0000 03BF         lcd_gotoxy(11,0);
000d12 e0eb      	LDI  R30,LOW(11)
000d13 940e 1985 	CALL SUBOPT_0x46
                 ; 0000 03C0         if(in>sensitive[adc]){
000d15 940e 198b 	CALL SUBOPT_0x47
000d17 f450      	BRSH _0x206
                 ; 0000 03C1         dep=dep+4;
000d18 940e 1990 	CALL SUBOPT_0x48
000d1a 9634      	ADIW R30,4
000d1b 940e 1995 	CALL SUBOPT_0x49
                 ; 0000 03C2         lcd_putchar(0xff);sen=11;
000d1d e0eb      	LDI  R30,LOW(11)
000d1e e0f0      	LDI  R31,HIGH(11)
000d1f 940e 199a 	CALL SUBOPT_0x4A
                 ; 0000 03C3         }
                 ; 0000 03C4         else lcd_putchar(0x5f);
000d21 c002      	RJMP _0x207
                 _0x206:
000d22 940e 17dd 	CALL SUBOPT_0x2
                 ; 0000 03C5         }
                 _0x207:
                 ; 0000 03C6 if(adc==11){
                 _0x205:
000d24 91a0 0594 	LDS  R26,_adc
000d26 30ab      	CPI  R26,LOW(0xB)
000d27 f491      	BRNE _0x208
                 ; 0000 03C7         lcd_gotoxy(12,0);
000d28 e0ec      	LDI  R30,LOW(12)
000d29 940e 1985 	CALL SUBOPT_0x46
                 ; 0000 03C8         if(in>sensitive[adc]){
000d2b 940e 198b 	CALL SUBOPT_0x47
000d2d f450      	BRSH _0x209
                 ; 0000 03C9         dep=dep+2;
000d2e 940e 1990 	CALL SUBOPT_0x48
000d30 9632      	ADIW R30,2
000d31 940e 1995 	CALL SUBOPT_0x49
                 ; 0000 03CA         lcd_putchar(0xff);sen=12;
000d33 e0ec      	LDI  R30,LOW(12)
000d34 e0f0      	LDI  R31,HIGH(12)
000d35 940e 199a 	CALL SUBOPT_0x4A
                 ; 0000 03CB         }
                 ; 0000 03CC         else lcd_putchar(0x5f);
000d37 c002      	RJMP _0x20A
                 _0x209:
000d38 940e 17dd 	CALL SUBOPT_0x2
                 ; 0000 03CD         }
                 _0x20A:
                 ; 0000 03CE if(adc==12){
                 _0x208:
000d3a 91a0 0594 	LDS  R26,_adc
000d3c 30ac      	CPI  R26,LOW(0xC)
000d3d f491      	BRNE _0x20B
                 ; 0000 03CF         lcd_gotoxy(13,0);
000d3e e0ed      	LDI  R30,LOW(13)
000d3f 940e 1985 	CALL SUBOPT_0x46
                 ; 0000 03D0         if(in>sensitive[adc]){
000d41 940e 198b 	CALL SUBOPT_0x47
000d43 f450      	BRSH _0x20C
                 ; 0000 03D1         dep=dep+1;
000d44 940e 1990 	CALL SUBOPT_0x48
000d46 9631      	ADIW R30,1
000d47 940e 1995 	CALL SUBOPT_0x49
                 ; 0000 03D2         lcd_putchar(0xff);sen=13;
000d49 e0ed      	LDI  R30,LOW(13)
000d4a e0f0      	LDI  R31,HIGH(13)
000d4b 940e 199a 	CALL SUBOPT_0x4A
                 ; 0000 03D3         }
                 ; 0000 03D4         else lcd_putchar(0x5f);
000d4d c002      	RJMP _0x20D
                 _0x20C:
000d4e 940e 17dd 	CALL SUBOPT_0x2
                 ; 0000 03D5         }
                 _0x20D:
                 ; 0000 03D6 if(adc==13){
                 _0x20B:
000d50 91a0 0594 	LDS  R26,_adc
000d52 30ad      	CPI  R26,LOW(0xD)
000d53 f4a1      	BRNE _0x20E
                 ; 0000 03D7         lcd_gotoxy(14,0);
000d54 e0ee      	LDI  R30,LOW(14)
000d55 940e 1985 	CALL SUBOPT_0x46
                 ; 0000 03D8         if(in>sensitive[adc]){
000d57 940e 198b 	CALL SUBOPT_0x47
000d59 f460      	BRSH _0x20F
                 ; 0000 03D9         sam=sam+1;
000d5a 91e0 0595 	LDS  R30,_sam
000d5c 5fef      	SUBI R30,-LOW(1)
000d5d 93e0 0595 	STS  _sam,R30
                 ; 0000 03DA         lcd_putchar(0xff);sen=14;
000d5f 940e 17e7 	CALL SUBOPT_0x4
000d61 e0ee      	LDI  R30,LOW(14)
000d62 e0f0      	LDI  R31,HIGH(14)
000d63 940e 199a 	CALL SUBOPT_0x4A
                 ; 0000 03DB         }
                 ; 0000 03DC         else lcd_putchar(0x5f);
000d65 c002      	RJMP _0x210
                 _0x20F:
000d66 940e 17dd 	CALL SUBOPT_0x2
                 ; 0000 03DD         }
                 _0x210:
                 ; 0000 03DE }
                 _0x20E:
000d68 940e 199f 	CALL SUBOPT_0x4B
000d6a cf52      	RJMP _0x1F6
                 _0x1F7:
                 ; 0000 03DF depan=dep;
000d6b 940e 1990 	CALL SUBOPT_0x48
000d6d 940e 19a5 	CALL SUBOPT_0x4C
                 ; 0000 03E0 samping=sam;
000d6f 93e0 0596 	STS  _samping,R30
                 ; 0000 03E1 samping1=sam1;
000d71 91e0 0597 	LDS  R30,_sam1
000d73 93e0 0598 	STS  _samping1,R30
                 ; 0000 03E2 }
000d75 9508      	RET
                 ;
                 ;void stop_time(){
                 ; 0000 03E4 void stop_time(){
                 _stop_time:
                 ; 0000 03E5 pwm_off();
000d76 940e 0386 	CALL _pwm_off
                 ; 0000 03E6 
                 ; 0000 03E7 lcd_clear();
000d78 940e 173d 	CALL _lcd_clear
                 ; 0000 03E8 while(1){
                 _0x211:
                 ; 0000 03E9 lmp=1;
000d7a 9ac3      	SBI  0x18,3
                 ; 0000 03EA aktif=0;
000d7b 94e8      	CLT
000d7c f820      	BLD  R2,0
                 ; 0000 03EB output=1;
000d7d 9a91      	SBI  0x12,1
                 ; 0000 03EC time[start]=cacah;
000d7e 940e 17fc 	CALL SUBOPT_0x8
000d80 54e1      	SUBI R30,LOW(-_time)
000d81 4ffc      	SBCI R31,HIGH(-_time)
000d82 91a0 0424 	LDS  R26,_cacah
000d84 83a0      	STD  Z+0,R26
                 ; 0000 03ED  lcd_gotoxy(0,1);
000d85 940e 185f 	CALL SUBOPT_0x13
                 ; 0000 03EE  sprintf(buff,"TIMER:%d COUNT:%d",time[start],start);
000d87 940e 186d 	CALL SUBOPT_0x16
                +
000d89 e9e6     +LDI R30 , LOW ( 2 * _0x0 + ( 812 ) )
000d8a e0f3     +LDI R31 , HIGH ( 2 * _0x0 + ( 812 ) )
                 	__POINTW1FN _0x0,812
000d8b 93fa      	ST   -Y,R31
000d8c 93ea      	ST   -Y,R30
000d8d 940e 17fc 	CALL SUBOPT_0x8
000d8f 54e1      	SUBI R30,LOW(-_time)
000d90 4ffc      	SBCI R31,HIGH(-_time)
000d91 81e0      	LD   R30,Z
000d92 940e 1872 	CALL SUBOPT_0x17
000d94 91e0 03be 	LDS  R30,_start
000d96 940e 1872 	CALL SUBOPT_0x17
000d98 940e 187e 	CALL SUBOPT_0x19
                 ; 0000 03EF  lcd_puts(buff);
000d9a 940e 186d 	CALL SUBOPT_0x16
000d9c 940e 176d 	CALL _lcd_puts
                 ; 0000 03F0  delay_ms(1);
000d9e e0e1      	LDI  R30,LOW(1)
000d9f e0f0      	LDI  R31,HIGH(1)
000da0 940e 18ae 	CALL SUBOPT_0x22
                 ; 0000 03F1 motor(0,0);
000da2 940e 1832 	CALL SUBOPT_0xF
000da4 93fa      	ST   -Y,R31
000da5 93ea      	ST   -Y,R30
000da6 940e 031d 	CALL _motor
                 ; 0000 03F2 if(time[start]>=timer[start])break;
000da8 940e 17fc 	CALL SUBOPT_0x8
000daa 940e 19ac 	CALL SUBOPT_0x4D
000dac f268      	BRLO _0x211
                 ; 0000 03F3 }
                 ; 0000 03F4 pwm_on();
000dad 940e 0382 	CALL _pwm_on
                 ; 0000 03F5 output=0;
000daf 9891      	CBI  0x12,1
                 ; 0000 03F6 lcd_clear();
000db0 c02e      	RJMP _0x2080004
                 ; 0000 03F7 }
                 ;
                 ;void no_line(){
                 ; 0000 03F9 void no_line(){
                 _no_line:
                 ; 0000 03FA lcd_clear();
000db1 940e 173d 	CALL _lcd_clear
                 ; 0000 03FB lmp=1;
000db3 9ac3      	SBI  0x18,3
                 ; 0000 03FC  lcd_gotoxy(0,1);
000db4 940e 185f 	CALL SUBOPT_0x13
                 ; 0000 03FD  sprintf(buff,"%03d<%02d>%03d %03d   ",max1,start,max1,tunda);
000db6 940e 186d 	CALL SUBOPT_0x16
                +
000db8 eae8     +LDI R30 , LOW ( 2 * _0x0 + ( 830 ) )
000db9 e0f3     +LDI R31 , HIGH ( 2 * _0x0 + ( 830 ) )
                 	__POINTW1FN _0x0,830
000dba 93fa      	ST   -Y,R31
000dbb 93ea      	ST   -Y,R30
000dbc 01f4      	MOVW R30,R8
000dbd 940e 19b6 	CALL SUBOPT_0x4E
000dbf 91e0 03be 	LDS  R30,_start
000dc1 940e 1872 	CALL SUBOPT_0x17
000dc3 01f4      	MOVW R30,R8
000dc4 940e 19b6 	CALL SUBOPT_0x4E
000dc6 91e0 0583 	LDS  R30,_tunda
000dc8 940e 1872 	CALL SUBOPT_0x17
000dca 940e 19bb 	CALL SUBOPT_0x4F
                 ; 0000 03FE  lcd_puts(buff);
000dcc 940e 176d 	CALL _lcd_puts
                 ; 0000 03FF tunda=del[start];
000dce 940e 17fc 	CALL SUBOPT_0x8
000dd0 5ee2      	SUBI R30,LOW(-_del)
000dd1 4ffa      	SBCI R31,HIGH(-_del)
000dd2 81e0      	LD   R30,Z
000dd3 93e0 0583 	STS  _tunda,R30
                 ; 0000 0400 motor(max1,max1);
000dd5 929a      	ST   -Y,R9
000dd6 928a      	ST   -Y,R8
000dd7 929a      	ST   -Y,R9
000dd8 928a      	ST   -Y,R8
000dd9 940e 031d 	CALL _motor
                 ; 0000 0401 delay_ms(tunda);
000ddb 940e 1858 	CALL SUBOPT_0x12
                 ; 0000 0402 aktif=0;
000ddd 94e8      	CLT
000dde f820      	BLD  R2,0
                 ; 0000 0403 lcd_clear();
                 _0x2080004:
000ddf 940e 173d 	CALL _lcd_clear
                 ; 0000 0404 }
000de1 9508      	RET
                 ;//-------------fungsi rem--------//
                 ;void ngerem()
                 ; 0000 0407 {
                 _ngerem:
                 ; 0000 0408 if(lc1>0){
000de2 940e 1967 	CALL SUBOPT_0x40
000de4 940e 1b11 	CALL __CPW02
000de6 f434      	BRGE _0x21D
                 ; 0000 0409 mundur();
000de7 940e 038d 	CALL _mundur
                 ; 0000 040A delay_ms(lc1);
000de9 940e 195d 	CALL SUBOPT_0x3E
000deb 940e 18ae 	CALL SUBOPT_0x22
                 ; 0000 040B }
                 ; 0000 040C }
                 _0x21D:
000ded 9508      	RET
                 ;
                 ;//-------------fungsi program yang di jalankan--------//
                 ;void program(){
                 ; 0000 040F void program(){
                 _program:
                 ; 0000 0410 if(input==0)output=1;
000dee 9980      	SBIC 0x10,0
000def c002      	RJMP _0x21E
000df0 9a91      	SBI  0x12,1
                 ; 0000 0411 else output=0;
000df1 c001      	RJMP _0x221
                 _0x21E:
000df2 9891      	CBI  0x12,1
                 ; 0000 0412 lmp=0;
                 _0x221:
000df3 98c3      	CBI  0x18,3
                 ; 0000 0413 time[start]=cacah;
000df4 940e 17fc 	CALL SUBOPT_0x8
000df6 54e1      	SUBI R30,LOW(-_time)
000df7 4ffc      	SBCI R31,HIGH(-_time)
000df8 91a0 0424 	LDS  R26,_cacah
000dfa 83a0      	STD  Z+0,R26
                 ; 0000 0414 if(time[start]<timer[start]&&mode==1){led=0;max1=speed[start];}
000dfb 940e 17fc 	CALL SUBOPT_0x8
000dfd 940e 19ac 	CALL SUBOPT_0x4D
000dff f420      	BRSH _0x227
000e00 91a0 0451 	LDS  R26,_mode
000e02 30a1      	CPI  R26,LOW(0x1)
000e03 f009      	BREQ _0x228
                 _0x227:
000e04 c007      	RJMP _0x226
                 _0x228:
000e05 9897      	CBI  0x12,7
000e06 940e 17fc 	CALL SUBOPT_0x8
000e08 50ed      	SUBI R30,LOW(-_speed)
000e09 4ffd      	SBCI R31,HIGH(-_speed)
000e0a 8080      	LD   R8,Z
000e0b 2499      	CLR  R9
                 ; 0000 0415 if(time[start]>=timer[start]&&mode==1){led=1;max1=speed1[start];}
                 _0x226:
000e0c 940e 17fc 	CALL SUBOPT_0x8
000e0e 940e 19ac 	CALL SUBOPT_0x4D
000e10 f020      	BRLO _0x22C
000e11 91a0 0451 	LDS  R26,_mode
000e13 30a1      	CPI  R26,LOW(0x1)
000e14 f009      	BREQ _0x22D
                 _0x22C:
000e15 c007      	RJMP _0x22B
                 _0x22D:
000e16 9a97      	SBI  0x12,7
000e17 940e 17fc 	CALL SUBOPT_0x8
000e19 5ae8      	SUBI R30,LOW(-_speed1)
000e1a 4ffc      	SBCI R31,HIGH(-_speed1)
000e1b 8080      	LD   R8,Z
000e1c 2499      	CLR  R9
                 ; 0000 0416 if(error>=-11&&error<=11){
                 _0x22B:
000e1d 940e 180e 	CALL SUBOPT_0xC
000e1f 3fa5      	CPI  R26,LOW(0xFFF5)
000e20 efef      	LDI  R30,HIGH(0xFFF5)
000e21 07be      	CPC  R27,R30
000e22 f024      	BRLT _0x231
000e23 940e 180e 	CALL SUBOPT_0xC
000e25 971c      	SBIW R26,12
000e26 f00c      	BRLT _0x232
                 _0x231:
000e27 c003      	RJMP _0x230
                 _0x232:
                 ; 0000 0417 protec=0;
000e28 e0e0      	LDI  R30,LOW(0)
000e29 93e0 051d 	STS  _protec,R30
                 ; 0000 0418 }
                 ; 0000 0419 /*
                 ; 0000 041A if(error<=-31||error>=31){
                 ; 0000 041B lock=0;
                 ; 0000 041C }
                 ; 0000 041D 
                 ; 0000 041E */
                 ; 0000 041F if(error<=52 && error>=20){lock=0;}
                 _0x230:
000e2b 940e 180e 	CALL SUBOPT_0xC
000e2d 97d5      	SBIW R26,53
000e2e f424      	BRGE _0x234
000e2f 940e 180e 	CALL SUBOPT_0xC
000e31 9754      	SBIW R26,20
000e32 f40c      	BRGE _0x235
                 _0x234:
000e33 c002      	RJMP _0x233
                 _0x235:
000e34 94e8      	CLT
000e35 f821      	BLD  R2,1
                 ; 0000 0420 if(error<=-52 && error<=-20){lock=0;}
                 _0x233:
000e36 940e 180e 	CALL SUBOPT_0xC
000e38 ecec      	LDI  R30,LOW(65484)
000e39 efff      	LDI  R31,HIGH(65484)
000e3a 17ea      	CP   R30,R26
000e3b 07fb      	CPC  R31,R27
000e3c f03c      	BRLT _0x237
000e3d 940e 180e 	CALL SUBOPT_0xC
000e3f eeec      	LDI  R30,LOW(65516)
000e40 efff      	LDI  R31,HIGH(65516)
000e41 17ea      	CP   R30,R26
000e42 07fb      	CPC  R31,R27
000e43 f40c      	BRGE _0x238
                 _0x237:
000e44 c002      	RJMP _0x236
                 _0x238:
000e45 94e8      	CLT
000e46 f821      	BLD  R2,1
                 ; 0000 0421 
                 ; 0000 0422 
                 ; 0000 0423 scansensor();
                 _0x236:
000e47 dda4      	RCALL _scansensor
                 ; 0000 0424 if(encomp==1){lmp=0;}
000e48 940e 196c 	CALL SUBOPT_0x41
000e4a 9711      	SBIW R26,1
000e4b f409      	BRNE _0x239
000e4c 98c3      	CBI  0x18,3
                 ; 0000 0425 if(encomp==2){depan= 4095-dep;
                 _0x239:
000e4d 940e 196c 	CALL SUBOPT_0x41
000e4f 9712      	SBIW R26,2
000e50 f421      	BRNE _0x23C
000e51 940e 19c0 	CALL SUBOPT_0x50
                 ; 0000 0426             samping=13-sam;
000e53 940e 19c9 	CALL SUBOPT_0x51
                 ; 0000 0427             lmp=1;
                 ; 0000 0428             }
                 ; 0000 0429 if(invers==1&&encomp==0){
                 _0x23C:
000e55 91a0 05b7 	LDS  R26,_invers
000e57 30a1      	CPI  R26,LOW(0x1)
000e58 f421      	BRNE _0x240
000e59 940e 196c 	CALL SUBOPT_0x41
000e5b 9710      	SBIW R26,0
000e5c f009      	BREQ _0x241
                 _0x240:
000e5d c005      	RJMP _0x23F
                 _0x241:
                 ; 0000 042A             depan= 4095-dep;
000e5e 940e 19c0 	CALL SUBOPT_0x50
                 ; 0000 042B             samping=13-sam;
000e60 940e 19c9 	CALL SUBOPT_0x51
                 ; 0000 042C             lmp=1;
                 ; 0000 042D             }
                 ; 0000 042E          else {
000e62 c006      	RJMP _0x244
                 _0x23F:
                 ; 0000 042F             invers=0;
000e63 e0e0      	LDI  R30,LOW(0)
000e64 93e0 05b7 	STS  _invers,R30
                 ; 0000 0430             inv = 0;
000e66 93e0 05b6 	STS  _inv,R30
                 ; 0000 0431             lmp=0;
000e68 98c3      	CBI  0x18,3
                 ; 0000 0432              }
                 _0x244:
                 ; 0000 0433  switch (depan)  {
000e69 940e 19d4 	CALL SUBOPT_0x52
                 ; 0000 0434  case 0b111111111110:
000e6b 3fee      	CPI  R30,LOW(0xFFE)
000e6c e0af      	LDI  R26,HIGH(0xFFE)
000e6d 07fa      	CPC  R31,R26
000e6e f021      	BREQ _0x24B
                 ; 0000 0435  case 0b111111111100:
000e6f 3fec      	CPI  R30,LOW(0xFFC)
000e70 e0af      	LDI  R26,HIGH(0xFFC)
000e71 07fa      	CPC  R31,R26
000e72 f409      	BRNE _0x24C
                 _0x24B:
                 ; 0000 0436  case 0b111111111101:
000e73 c004      	RJMP _0x24D
                 _0x24C:
000e74 3fed      	CPI  R30,LOW(0xFFD)
000e75 e0af      	LDI  R26,HIGH(0xFFD)
000e76 07fa      	CPC  R31,R26
000e77 f409      	BRNE _0x24E
                 _0x24D:
                 ; 0000 0437  case 0b111111111001:
000e78 c004      	RJMP _0x24F
                 _0x24E:
000e79 3fe9      	CPI  R30,LOW(0xFF9)
000e7a e0af      	LDI  R26,HIGH(0xFF9)
000e7b 07fa      	CPC  R31,R26
000e7c f409      	BRNE _0x250
                 _0x24F:
                 ; 0000 0438  case 0b111111111011:
000e7d c004      	RJMP _0x251
                 _0x250:
000e7e 3feb      	CPI  R30,LOW(0xFFB)
000e7f e0af      	LDI  R26,HIGH(0xFFB)
000e80 07fa      	CPC  R31,R26
000e81 f409      	BRNE _0x252
                 _0x251:
                 ; 0000 0439  case 0b111111110011:
000e82 c004      	RJMP _0x253
                 _0x252:
000e83 3fe3      	CPI  R30,LOW(0xFF3)
000e84 e0af      	LDI  R26,HIGH(0xFF3)
000e85 07fa      	CPC  R31,R26
000e86 f409      	BRNE _0x254
                 _0x253:
                 ; 0000 043A  case 0b111111110111:
000e87 c004      	RJMP _0x255
                 _0x254:
000e88 3fe7      	CPI  R30,LOW(0xFF7)
000e89 e0af      	LDI  R26,HIGH(0xFF7)
000e8a 07fa      	CPC  R31,R26
000e8b f409      	BRNE _0x256
                 _0x255:
                 ; 0000 043B  case 0b111111100111:
000e8c c004      	RJMP _0x257
                 _0x256:
000e8d 3ee7      	CPI  R30,LOW(0xFE7)
000e8e e0af      	LDI  R26,HIGH(0xFE7)
000e8f 07fa      	CPC  R31,R26
000e90 f409      	BRNE _0x258
                 _0x257:
                 ; 0000 043C  case 0b111111101111:
000e91 c004      	RJMP _0x259
                 _0x258:
000e92 3eef      	CPI  R30,LOW(0xFEF)
000e93 e0af      	LDI  R26,HIGH(0xFEF)
000e94 07fa      	CPC  R31,R26
000e95 f409      	BRNE _0x25A
                 _0x259:
                 ; 0000 043D  case 0b111111001111:
000e96 c004      	RJMP _0x25B
                 _0x25A:
000e97 3cef      	CPI  R30,LOW(0xFCF)
000e98 e0af      	LDI  R26,HIGH(0xFCF)
000e99 07fa      	CPC  R31,R26
000e9a f409      	BRNE _0x25C
                 _0x25B:
                 ; 0000 043E  case 0b111111011111:
000e9b c004      	RJMP _0x25D
                 _0x25C:
000e9c 3def      	CPI  R30,LOW(0xFDF)
000e9d e0af      	LDI  R26,HIGH(0xFDF)
000e9e 07fa      	CPC  R31,R26
000e9f f409      	BRNE _0x25E
                 _0x25D:
                 ; 0000 043F 
                 ; 0000 0440  case 0b111110011111:
000ea0 c004      	RJMP _0x25F
                 _0x25E:
000ea1 39ef      	CPI  R30,LOW(0xF9F)
000ea2 e0af      	LDI  R26,HIGH(0xF9F)
000ea3 07fa      	CPC  R31,R26
000ea4 f409      	BRNE _0x260
                 _0x25F:
                 ; 0000 0441 
                 ; 0000 0442  case 0b111110111111:
000ea5 c004      	RJMP _0x261
                 _0x260:
000ea6 3bef      	CPI  R30,LOW(0xFBF)
000ea7 e0af      	LDI  R26,HIGH(0xFBF)
000ea8 07fa      	CPC  R31,R26
000ea9 f409      	BRNE _0x262
                 _0x261:
                 ; 0000 0443  case 0b111100111111:
000eaa c004      	RJMP _0x263
                 _0x262:
000eab 33ef      	CPI  R30,LOW(0xF3F)
000eac e0af      	LDI  R26,HIGH(0xF3F)
000ead 07fa      	CPC  R31,R26
000eae f409      	BRNE _0x264
                 _0x263:
                 ; 0000 0444  case 0b111101111111:
000eaf c004      	RJMP _0x265
                 _0x264:
000eb0 37ef      	CPI  R30,LOW(0xF7F)
000eb1 e0af      	LDI  R26,HIGH(0xF7F)
000eb2 07fa      	CPC  R31,R26
000eb3 f409      	BRNE _0x266
                 _0x265:
                 ; 0000 0445  case 0b111001111111:
000eb4 c004      	RJMP _0x267
                 _0x266:
000eb5 37ef      	CPI  R30,LOW(0xE7F)
000eb6 e0ae      	LDI  R26,HIGH(0xE7F)
000eb7 07fa      	CPC  R31,R26
000eb8 f409      	BRNE _0x268
                 _0x267:
                 ; 0000 0446  case 0b111011111111:
000eb9 c004      	RJMP _0x269
                 _0x268:
000eba 3fef      	CPI  R30,LOW(0xEFF)
000ebb e0ae      	LDI  R26,HIGH(0xEFF)
000ebc 07fa      	CPC  R31,R26
000ebd f409      	BRNE _0x26A
                 _0x269:
                 ; 0000 0447  case 0b110011111111:
000ebe c004      	RJMP _0x26B
                 _0x26A:
000ebf 3fef      	CPI  R30,LOW(0xCFF)
000ec0 e0ac      	LDI  R26,HIGH(0xCFF)
000ec1 07fa      	CPC  R31,R26
000ec2 f409      	BRNE _0x26C
                 _0x26B:
                 ; 0000 0448  case 0b110111111111:
000ec3 c004      	RJMP _0x26D
                 _0x26C:
000ec4 3fef      	CPI  R30,LOW(0xDFF)
000ec5 e0ad      	LDI  R26,HIGH(0xDFF)
000ec6 07fa      	CPC  R31,R26
000ec7 f409      	BRNE _0x26E
                 _0x26D:
                 ; 0000 0449  case 0b100111111111:
000ec8 c004      	RJMP _0x26F
                 _0x26E:
000ec9 3fef      	CPI  R30,LOW(0x9FF)
000eca e0a9      	LDI  R26,HIGH(0x9FF)
000ecb 07fa      	CPC  R31,R26
000ecc f409      	BRNE _0x270
                 _0x26F:
                 ; 0000 044A  case 0b101111111111:
000ecd c004      	RJMP _0x271
                 _0x270:
000ece 3fef      	CPI  R30,LOW(0xBFF)
000ecf e0ab      	LDI  R26,HIGH(0xBFF)
000ed0 07fa      	CPC  R31,R26
000ed1 f409      	BRNE _0x272
                 _0x271:
                 ; 0000 044B  case 0b001111111111:
000ed2 c004      	RJMP _0x273
                 _0x272:
000ed3 3fef      	CPI  R30,LOW(0x3FF)
000ed4 e0a3      	LDI  R26,HIGH(0x3FF)
000ed5 07fa      	CPC  R31,R26
000ed6 f409      	BRNE _0x274
                 _0x273:
                 ; 0000 044C  case 0b011111111111:
000ed7 c004      	RJMP _0x275
                 _0x274:
000ed8 3fef      	CPI  R30,LOW(0x7FF)
000ed9 e0a7      	LDI  R26,HIGH(0x7FF)
000eda 07fa      	CPC  R31,R26
000edb f499      	BRNE _0x276
                 _0x275:
                 ; 0000 044D  if (inv==0&&encomp==0)invers++;
000edc 91a0 05b6 	LDS  R26,_inv
000ede 30a0      	CPI  R26,LOW(0x0)
000edf f421      	BRNE _0x278
000ee0 940e 196c 	CALL SUBOPT_0x41
000ee2 9710      	SBIW R26,0
000ee3 f009      	BREQ _0x279
                 _0x278:
000ee4 c006      	RJMP _0x277
                 _0x279:
000ee5 91e0 05b7 	LDS  R30,_invers
000ee7 5fef      	SUBI R30,-LOW(1)
000ee8 93e0 05b7 	STS  _invers,R30
                 ; 0000 044E  else inv = 0; break;
000eea c003      	RJMP _0x27A
                 _0x277:
000eeb e0e0      	LDI  R30,LOW(0)
000eec 93e0 05b6 	STS  _inv,R30
                 _0x27A:
000eee c1bd      	RJMP _0x249
                 ; 0000 044F  case 0b000000000001:        error=-31;   break;
                 _0x276:
000eef 30e1      	CPI  R30,LOW(0x1)
000ef0 e0a0      	LDI  R26,HIGH(0x1)
000ef1 07fa      	CPC  R31,R26
000ef2 f429      	BRNE _0x27B
000ef3 eee1      	LDI  R30,LOW(65505)
000ef4 efff      	LDI  R31,HIGH(65505)
000ef5 940e 19d9 	CALL SUBOPT_0x53
000ef7 c1b4      	RJMP _0x249
                 ; 0000 0450  case 0b000000000011:       error=-27;   break;
                 _0x27B:
000ef8 30e3      	CPI  R30,LOW(0x3)
000ef9 e0a0      	LDI  R26,HIGH(0x3)
000efa 07fa      	CPC  R31,R26
000efb f429      	BRNE _0x27C
000efc eee5      	LDI  R30,LOW(65509)
000efd efff      	LDI  R31,HIGH(65509)
000efe 940e 19d9 	CALL SUBOPT_0x53
000f00 c1ab      	RJMP _0x249
                 ; 0000 0451  case 0b000000000010:       error=-25;   break;
                 _0x27C:
000f01 30e2      	CPI  R30,LOW(0x2)
000f02 e0a0      	LDI  R26,HIGH(0x2)
000f03 07fa      	CPC  R31,R26
000f04 f429      	BRNE _0x27D
000f05 eee7      	LDI  R30,LOW(65511)
000f06 efff      	LDI  R31,HIGH(65511)
000f07 940e 19d9 	CALL SUBOPT_0x53
000f09 c1a2      	RJMP _0x249
                 ; 0000 0452  case 0b000000000110:       error=-21;   break;
                 _0x27D:
000f0a 30e6      	CPI  R30,LOW(0x6)
000f0b e0a0      	LDI  R26,HIGH(0x6)
000f0c 07fa      	CPC  R31,R26
000f0d f429      	BRNE _0x27E
000f0e eeeb      	LDI  R30,LOW(65515)
000f0f efff      	LDI  R31,HIGH(65515)
000f10 940e 19d9 	CALL SUBOPT_0x53
000f12 c199      	RJMP _0x249
                 ; 0000 0453  case 0b000000000100:       error=-17;   break;
                 _0x27E:
000f13 30e4      	CPI  R30,LOW(0x4)
000f14 e0a0      	LDI  R26,HIGH(0x4)
000f15 07fa      	CPC  R31,R26
000f16 f429      	BRNE _0x27F
000f17 eeef      	LDI  R30,LOW(65519)
000f18 efff      	LDI  R31,HIGH(65519)
000f19 940e 19d9 	CALL SUBOPT_0x53
000f1b c190      	RJMP _0x249
                 ; 0000 0454  case 0b000000001100:       error=-15;   break;
                 _0x27F:
000f1c 30ec      	CPI  R30,LOW(0xC)
000f1d e0a0      	LDI  R26,HIGH(0xC)
000f1e 07fa      	CPC  R31,R26
000f1f f429      	BRNE _0x280
000f20 efe1      	LDI  R30,LOW(65521)
000f21 efff      	LDI  R31,HIGH(65521)
000f22 940e 19d9 	CALL SUBOPT_0x53
000f24 c187      	RJMP _0x249
                 ; 0000 0455  case 0b000000001000:       error=-11;   break;
                 _0x280:
000f25 30e8      	CPI  R30,LOW(0x8)
000f26 e0a0      	LDI  R26,HIGH(0x8)
000f27 07fa      	CPC  R31,R26
000f28 f429      	BRNE _0x281
000f29 efe5      	LDI  R30,LOW(65525)
000f2a efff      	LDI  R31,HIGH(65525)
000f2b 940e 19d9 	CALL SUBOPT_0x53
000f2d c17e      	RJMP _0x249
                 ; 0000 0456  case 0b000000011000:       error=-7;   break;
                 _0x281:
000f2e 31e8      	CPI  R30,LOW(0x18)
000f2f e0a0      	LDI  R26,HIGH(0x18)
000f30 07fa      	CPC  R31,R26
000f31 f429      	BRNE _0x282
000f32 efe9      	LDI  R30,LOW(65529)
000f33 efff      	LDI  R31,HIGH(65529)
000f34 940e 19d9 	CALL SUBOPT_0x53
000f36 c175      	RJMP _0x249
                 ; 0000 0457  case 0b000000010000:       error=-5;   break;
                 _0x282:
000f37 31e0      	CPI  R30,LOW(0x10)
000f38 e0a0      	LDI  R26,HIGH(0x10)
000f39 07fa      	CPC  R31,R26
000f3a f429      	BRNE _0x283
000f3b efeb      	LDI  R30,LOW(65531)
000f3c efff      	LDI  R31,HIGH(65531)
000f3d 940e 19d9 	CALL SUBOPT_0x53
000f3f c16c      	RJMP _0x249
                 ; 0000 0458  case 0b000001010000:       error=-3;   break; //di balik
                 _0x283:
000f40 35e0      	CPI  R30,LOW(0x50)
000f41 e0a0      	LDI  R26,HIGH(0x50)
000f42 07fa      	CPC  R31,R26
000f43 f429      	BRNE _0x284
000f44 efed      	LDI  R30,LOW(65533)
000f45 efff      	LDI  R31,HIGH(65533)
000f46 940e 19d9 	CALL SUBOPT_0x53
000f48 c163      	RJMP _0x249
                 ; 0000 0459  case 0b000001000000:       error=-1;   break; //di balik
                 _0x284:
000f49 34e0      	CPI  R30,LOW(0x40)
000f4a e0a0      	LDI  R26,HIGH(0x40)
000f4b 07fa      	CPC  R31,R26
000f4c f429      	BRNE _0x285
000f4d efef      	LDI  R30,LOW(65535)
000f4e efff      	LDI  R31,HIGH(65535)
000f4f 940e 19d9 	CALL SUBOPT_0x53
000f51 c15a      	RJMP _0x249
                 ; 0000 045A  case 0b000001100000:       error=0;    break;
                 _0x285:
000f52 36e0      	CPI  R30,LOW(0x60)
000f53 e0a0      	LDI  R26,HIGH(0x60)
000f54 07fa      	CPC  R31,R26
000f55 f419      	BRNE _0x286
000f56 940e 19de 	CALL SUBOPT_0x54
000f58 c153      	RJMP _0x249
                 ; 0000 045B 
                 ; 0000 045C  case 0b000000100000:       error=1;    break; //di balik
                 _0x286:
000f59 32e0      	CPI  R30,LOW(0x20)
000f5a e0a0      	LDI  R26,HIGH(0x20)
000f5b 07fa      	CPC  R31,R26
000f5c f429      	BRNE _0x287
000f5d e0e1      	LDI  R30,LOW(1)
000f5e e0f0      	LDI  R31,HIGH(1)
000f5f 940e 19d9 	CALL SUBOPT_0x53
000f61 c14a      	RJMP _0x249
                 ; 0000 045D  case 0b000010100000:       error=3;    break; //di balik
                 _0x287:
000f62 3ae0      	CPI  R30,LOW(0xA0)
000f63 e0a0      	LDI  R26,HIGH(0xA0)
000f64 07fa      	CPC  R31,R26
000f65 f429      	BRNE _0x288
000f66 e0e3      	LDI  R30,LOW(3)
000f67 e0f0      	LDI  R31,HIGH(3)
000f68 940e 19d9 	CALL SUBOPT_0x53
000f6a c141      	RJMP _0x249
                 ; 0000 045E  case 0b000010000000:       error=5;    break;
                 _0x288:
000f6b 38e0      	CPI  R30,LOW(0x80)
000f6c e0a0      	LDI  R26,HIGH(0x80)
000f6d 07fa      	CPC  R31,R26
000f6e f429      	BRNE _0x289
000f6f e0e5      	LDI  R30,LOW(5)
000f70 e0f0      	LDI  R31,HIGH(5)
000f71 940e 19d9 	CALL SUBOPT_0x53
000f73 c138      	RJMP _0x249
                 ; 0000 045F  case 0b000110000000:       error=7;    break;
                 _0x289:
000f74 38e0      	CPI  R30,LOW(0x180)
000f75 e0a1      	LDI  R26,HIGH(0x180)
000f76 07fa      	CPC  R31,R26
000f77 f429      	BRNE _0x28A
000f78 e0e7      	LDI  R30,LOW(7)
000f79 e0f0      	LDI  R31,HIGH(7)
000f7a 940e 19d9 	CALL SUBOPT_0x53
000f7c c12f      	RJMP _0x249
                 ; 0000 0460  case 0b000100000000:       error=11;   break;
                 _0x28A:
000f7d 30e0      	CPI  R30,LOW(0x100)
000f7e e0a1      	LDI  R26,HIGH(0x100)
000f7f 07fa      	CPC  R31,R26
000f80 f429      	BRNE _0x28B
000f81 e0eb      	LDI  R30,LOW(11)
000f82 e0f0      	LDI  R31,HIGH(11)
000f83 940e 19d9 	CALL SUBOPT_0x53
000f85 c126      	RJMP _0x249
                 ; 0000 0461  case 0b001100000000:       error=15;   break;
                 _0x28B:
000f86 30e0      	CPI  R30,LOW(0x300)
000f87 e0a3      	LDI  R26,HIGH(0x300)
000f88 07fa      	CPC  R31,R26
000f89 f429      	BRNE _0x28C
000f8a e0ef      	LDI  R30,LOW(15)
000f8b e0f0      	LDI  R31,HIGH(15)
000f8c 940e 19d9 	CALL SUBOPT_0x53
000f8e c11d      	RJMP _0x249
                 ; 0000 0462  case 0b001000000000:       error=17;   break;
                 _0x28C:
000f8f 30e0      	CPI  R30,LOW(0x200)
000f90 e0a2      	LDI  R26,HIGH(0x200)
000f91 07fa      	CPC  R31,R26
000f92 f429      	BRNE _0x28D
000f93 e1e1      	LDI  R30,LOW(17)
000f94 e0f0      	LDI  R31,HIGH(17)
000f95 940e 19d9 	CALL SUBOPT_0x53
000f97 c114      	RJMP _0x249
                 ; 0000 0463  case 0b011000000000:       error=21;   break;
                 _0x28D:
000f98 30e0      	CPI  R30,LOW(0x600)
000f99 e0a6      	LDI  R26,HIGH(0x600)
000f9a 07fa      	CPC  R31,R26
000f9b f429      	BRNE _0x28E
000f9c e1e5      	LDI  R30,LOW(21)
000f9d e0f0      	LDI  R31,HIGH(21)
000f9e 940e 19d9 	CALL SUBOPT_0x53
000fa0 c10b      	RJMP _0x249
                 ; 0000 0464  case 0b010000000000:       error=25;   break;
                 _0x28E:
000fa1 30e0      	CPI  R30,LOW(0x400)
000fa2 e0a4      	LDI  R26,HIGH(0x400)
000fa3 07fa      	CPC  R31,R26
000fa4 f429      	BRNE _0x28F
000fa5 e1e9      	LDI  R30,LOW(25)
000fa6 e0f0      	LDI  R31,HIGH(25)
000fa7 940e 19d9 	CALL SUBOPT_0x53
000fa9 c102      	RJMP _0x249
                 ; 0000 0465  case 0b110000000000:       error=27;   break;
                 _0x28F:
000faa 30e0      	CPI  R30,LOW(0xC00)
000fab e0ac      	LDI  R26,HIGH(0xC00)
000fac 07fa      	CPC  R31,R26
000fad f429      	BRNE _0x290
000fae e1eb      	LDI  R30,LOW(27)
000faf e0f0      	LDI  R31,HIGH(27)
000fb0 940e 19d9 	CALL SUBOPT_0x53
000fb2 c0f9      	RJMP _0x249
                 ; 0000 0466  case 0b100000000000:       error=31;   break;
                 _0x290:
000fb3 30e0      	CPI  R30,LOW(0x800)
000fb4 e0a8      	LDI  R26,HIGH(0x800)
000fb5 07fa      	CPC  R31,R26
000fb6 f429      	BRNE _0x291
000fb7 e1ef      	LDI  R30,LOW(31)
000fb8 e0f0      	LDI  R31,HIGH(31)
000fb9 940e 19d9 	CALL SUBOPT_0x53
000fbb c0f0      	RJMP _0x249
                 ; 0000 0467 
                 ; 0000 0468  case 0b000000000111:       error=-21;    break;
                 _0x291:
000fbc 30e7      	CPI  R30,LOW(0x7)
000fbd e0a0      	LDI  R26,HIGH(0x7)
000fbe 07fa      	CPC  R31,R26
000fbf f429      	BRNE _0x292
000fc0 eeeb      	LDI  R30,LOW(65515)
000fc1 efff      	LDI  R31,HIGH(65515)
000fc2 940e 19d9 	CALL SUBOPT_0x53
000fc4 c0e7      	RJMP _0x249
                 ; 0000 0469  case 0b000000001111:       error=-17;    break;
                 _0x292:
000fc5 30ef      	CPI  R30,LOW(0xF)
000fc6 e0a0      	LDI  R26,HIGH(0xF)
000fc7 07fa      	CPC  R31,R26
000fc8 f429      	BRNE _0x293
000fc9 eeef      	LDI  R30,LOW(65519)
000fca efff      	LDI  R31,HIGH(65519)
000fcb 940e 19d9 	CALL SUBOPT_0x53
000fcd c0de      	RJMP _0x249
                 ; 0000 046A  case 0b000000001110:       error=-15;    break;
                 _0x293:
000fce 30ee      	CPI  R30,LOW(0xE)
000fcf e0a0      	LDI  R26,HIGH(0xE)
000fd0 07fa      	CPC  R31,R26
000fd1 f429      	BRNE _0x294
000fd2 efe1      	LDI  R30,LOW(65521)
000fd3 efff      	LDI  R31,HIGH(65521)
000fd4 940e 19d9 	CALL SUBOPT_0x53
000fd6 c0d5      	RJMP _0x249
                 ; 0000 046B  case 0b000000011110:       error=-11;    break;
                 _0x294:
000fd7 31ee      	CPI  R30,LOW(0x1E)
000fd8 e0a0      	LDI  R26,HIGH(0x1E)
000fd9 07fa      	CPC  R31,R26
000fda f429      	BRNE _0x295
000fdb efe5      	LDI  R30,LOW(65525)
000fdc efff      	LDI  R31,HIGH(65525)
000fdd 940e 19d9 	CALL SUBOPT_0x53
000fdf c0cc      	RJMP _0x249
                 ; 0000 046C  case 0b000000011100:       error=-7;     break;
                 _0x295:
000fe0 31ec      	CPI  R30,LOW(0x1C)
000fe1 e0a0      	LDI  R26,HIGH(0x1C)
000fe2 07fa      	CPC  R31,R26
000fe3 f429      	BRNE _0x296
000fe4 efe9      	LDI  R30,LOW(65529)
000fe5 efff      	LDI  R31,HIGH(65529)
000fe6 940e 19d9 	CALL SUBOPT_0x53
000fe8 c0c3      	RJMP _0x249
                 ; 0000 046D  case 0b000001011100:       error=-5;     break; //di balik
                 _0x296:
000fe9 35ec      	CPI  R30,LOW(0x5C)
000fea e0a0      	LDI  R26,HIGH(0x5C)
000feb 07fa      	CPC  R31,R26
000fec f429      	BRNE _0x297
000fed efeb      	LDI  R30,LOW(65531)
000fee efff      	LDI  R31,HIGH(65531)
000fef 940e 19d9 	CALL SUBOPT_0x53
000ff1 c0ba      	RJMP _0x249
                 ; 0000 046E  case 0b000001011000:       error=-3;     break; //di balik
                 _0x297:
000ff2 35e8      	CPI  R30,LOW(0x58)
000ff3 e0a0      	LDI  R26,HIGH(0x58)
000ff4 07fa      	CPC  R31,R26
000ff5 f429      	BRNE _0x298
000ff6 efed      	LDI  R30,LOW(65533)
000ff7 efff      	LDI  R31,HIGH(65533)
000ff8 940e 19d9 	CALL SUBOPT_0x53
000ffa c0b1      	RJMP _0x249
                 ; 0000 046F  case 0b000001110000:
                 _0x298:
000ffb 37e0      	CPI  R30,LOW(0x70)
000ffc e0a0      	LDI  R26,HIGH(0x70)
000ffd 07fa      	CPC  R31,R26
000ffe f021      	BREQ _0x29A
                 ; 0000 0470  case 0b111001101111:
000fff 36ef      	CPI  R30,LOW(0xE6F)
001000 e0ae      	LDI  R26,HIGH(0xE6F)
001001 07fa      	CPC  R31,R26
001002 f409      	BRNE _0x29B
                 _0x29A:
                 ; 0000 0471  case 0b111011100111:
001003 c004      	RJMP _0x29C
                 _0x29B:
001004 3ee7      	CPI  R30,LOW(0xEE7)
001005 e0ae      	LDI  R26,HIGH(0xEE7)
001006 07fa      	CPC  R31,R26
001007 f409      	BRNE _0x29D
                 _0x29C:
                 ; 0000 0472  case 0b111111111111:
001008 c004      	RJMP _0x29E
                 _0x29D:
001009 3fef      	CPI  R30,LOW(0xFFF)
00100a e0af      	LDI  R26,HIGH(0xFFF)
00100b 07fa      	CPC  R31,R26
00100c f409      	BRNE _0x29F
                 _0x29E:
                 ; 0000 0473  case 0b011111111110:
00100d c004      	RJMP _0x2A0
                 _0x29F:
00100e 3fee      	CPI  R30,LOW(0x7FE)
00100f e0a7      	LDI  R26,HIGH(0x7FE)
001010 07fa      	CPC  R31,R26
001011 f409      	BRNE _0x2A1
                 _0x2A0:
                 ; 0000 0474  case 0b001111111100:
001012 c004      	RJMP _0x2A2
                 _0x2A1:
001013 3fec      	CPI  R30,LOW(0x3FC)
001014 e0a3      	LDI  R26,HIGH(0x3FC)
001015 07fa      	CPC  R31,R26
001016 f409      	BRNE _0x2A3
                 _0x2A2:
                 ; 0000 0475  case 0b000111111000:
001017 c004      	RJMP _0x2A4
                 _0x2A3:
001018 3fe8      	CPI  R30,LOW(0x1F8)
001019 e0a1      	LDI  R26,HIGH(0x1F8)
00101a 07fa      	CPC  R31,R26
00101b f409      	BRNE _0x2A5
                 _0x2A4:
                 ; 0000 0476  case 0b000011100000:
00101c c004      	RJMP _0x2A6
                 _0x2A5:
00101d 3ee0      	CPI  R30,LOW(0xE0)
00101e e0a0      	LDI  R26,HIGH(0xE0)
00101f 07fa      	CPC  R31,R26
001020 f409      	BRNE _0x2A7
                 _0x2A6:
                 ; 0000 0477  case 0b000011110000:       error=0;     break;
001021 c004      	RJMP _0x2A8
                 _0x2A7:
001022 3fe0      	CPI  R30,LOW(0xF0)
001023 e0a0      	LDI  R26,HIGH(0xF0)
001024 07fa      	CPC  R31,R26
001025 f419      	BRNE _0x2A9
                 _0x2A8:
001026 940e 19de 	CALL SUBOPT_0x54
001028 c083      	RJMP _0x249
                 ; 0000 0478 
                 ; 0000 0479  case 0b000110100000:       error=3;     break; //di balik
                 _0x2A9:
001029 3ae0      	CPI  R30,LOW(0x1A0)
00102a e0a1      	LDI  R26,HIGH(0x1A0)
00102b 07fa      	CPC  R31,R26
00102c f429      	BRNE _0x2AA
00102d e0e3      	LDI  R30,LOW(3)
00102e e0f0      	LDI  R31,HIGH(3)
00102f 940e 19d9 	CALL SUBOPT_0x53
001031 c07a      	RJMP _0x249
                 ; 0000 047A  case 0b001110100000:       error=5;     break; //di balik
                 _0x2AA:
001032 3ae0      	CPI  R30,LOW(0x3A0)
001033 e0a3      	LDI  R26,HIGH(0x3A0)
001034 07fa      	CPC  R31,R26
001035 f429      	BRNE _0x2AB
001036 e0e5      	LDI  R30,LOW(5)
001037 e0f0      	LDI  R31,HIGH(5)
001038 940e 19d9 	CALL SUBOPT_0x53
00103a c071      	RJMP _0x249
                 ; 0000 047B  case 0b001110000000:       error=7;     break;
                 _0x2AB:
00103b 38e0      	CPI  R30,LOW(0x380)
00103c e0a3      	LDI  R26,HIGH(0x380)
00103d 07fa      	CPC  R31,R26
00103e f429      	BRNE _0x2AC
00103f e0e7      	LDI  R30,LOW(7)
001040 e0f0      	LDI  R31,HIGH(7)
001041 940e 19d9 	CALL SUBOPT_0x53
001043 c068      	RJMP _0x249
                 ; 0000 047C  case 0b011110000000:       error=11;    break;
                 _0x2AC:
001044 38e0      	CPI  R30,LOW(0x780)
001045 e0a7      	LDI  R26,HIGH(0x780)
001046 07fa      	CPC  R31,R26
001047 f429      	BRNE _0x2AD
001048 e0eb      	LDI  R30,LOW(11)
001049 e0f0      	LDI  R31,HIGH(11)
00104a 940e 19d9 	CALL SUBOPT_0x53
00104c c05f      	RJMP _0x249
                 ; 0000 047D  case 0b011100000000:       error=15;    break;
                 _0x2AD:
00104d 30e0      	CPI  R30,LOW(0x700)
00104e e0a7      	LDI  R26,HIGH(0x700)
00104f 07fa      	CPC  R31,R26
001050 f429      	BRNE _0x2AE
001051 e0ef      	LDI  R30,LOW(15)
001052 e0f0      	LDI  R31,HIGH(15)
001053 940e 19d9 	CALL SUBOPT_0x53
001055 c056      	RJMP _0x249
                 ; 0000 047E  case 0b111100000000:       error=17;    break;
                 _0x2AE:
001056 30e0      	CPI  R30,LOW(0xF00)
001057 e0af      	LDI  R26,HIGH(0xF00)
001058 07fa      	CPC  R31,R26
001059 f429      	BRNE _0x2AF
00105a e1e1      	LDI  R30,LOW(17)
00105b e0f0      	LDI  R31,HIGH(17)
00105c 940e 19d9 	CALL SUBOPT_0x53
00105e c04d      	RJMP _0x249
                 ; 0000 047F  case 0b111000000000:       error=21;    break;
                 _0x2AF:
00105f 30e0      	CPI  R30,LOW(0xE00)
001060 e0ae      	LDI  R26,HIGH(0xE00)
001061 07fa      	CPC  R31,R26
001062 f429      	BRNE _0x2B0
001063 e1e5      	LDI  R30,LOW(21)
001064 e0f0      	LDI  R31,HIGH(21)
001065 940e 19d9 	CALL SUBOPT_0x53
001067 c044      	RJMP _0x249
                 ; 0000 0480 
                 ; 0000 0481  case 0b000000000000:
                 _0x2B0:
001068 9730      	SBIW R30,0
001069 f011      	BREQ PC+3
00106a 940c 10ac 	JMP _0x249
                 ; 0000 0482 
                 ; 0000 0483 // Right sharp
                 ; 0000 0484  if(scan==0){
00106c 91e0 05b5 	LDS  R30,_scan
00106e 30e0      	CPI  R30,0
00106f f5e1      	BRNE _0x2B2
                 ; 0000 0485  if(samping==0b01){
001070 91a0 0596 	LDS  R26,_samping
001072 30a1      	CPI  R26,LOW(0x1)
001073 f441      	BRNE _0x2B3
                 ; 0000 0486  if(depan==0){
001074 940e 19d4 	CALL SUBOPT_0x52
001076 9730      	SBIW R30,0
001077 f421      	BRNE _0x2B4
                 ; 0000 0487  if(lock==0)ngerem();
001078 fe21      	SBRS R2,1
001079 dd68      	RCALL _ngerem
                 ; 0000 0488  lock=1;
00107a 940e 19e4 	CALL SUBOPT_0x55
                 ; 0000 0489  error=52;
                 ; 0000 048A  kananlancip();
                 ; 0000 048B  scan=1;
                 ; 0000 048C  }
                 ; 0000 048D  }
                 _0x2B4:
                 ; 0000 048E 
                 ; 0000 048F  if(depan==0b000000000001){
                 _0x2B3:
00107c 940e 19ef 	CALL SUBOPT_0x56
00107e 9711      	SBIW R26,1
00107f f421      	BRNE _0x2B6
                 ; 0000 0490  if(lock==0)ngerem();
001080 fe21      	SBRS R2,1
001081 dd60      	RCALL _ngerem
                 ; 0000 0491  lock=1;
001082 940e 19e4 	CALL SUBOPT_0x55
                 ; 0000 0492  error=52;
                 ; 0000 0493  kananlancip();
                 ; 0000 0494  scan=1;
                 ; 0000 0495  }
                 ; 0000 0496 
                 ; 0000 0497 
                 ; 0000 0498  if(depan==0b000000000010){
                 _0x2B6:
001084 940e 19ef 	CALL SUBOPT_0x56
001086 9712      	SBIW R26,2
001087 f421      	BRNE _0x2B8
                 ; 0000 0499  if(lock==0)ngerem();
001088 fe21      	SBRS R2,1
001089 dd58      	RCALL _ngerem
                 ; 0000 049A  lock=1;
00108a 940e 19e4 	CALL SUBOPT_0x55
                 ; 0000 049B  error=52;
                 ; 0000 049C  kananlancip();
                 ; 0000 049D  scan=1;
                 ; 0000 049E  }
                 ; 0000 049F 
                 ; 0000 04A0  /*
                 ; 0000 04A1  if(samping==0b1100){
                 ; 0000 04A2  if(depan==0){
                 ; 0000 04A3  if(lock==0)ngerem();
                 ; 0000 04A4  lock=1;
                 ; 0000 04A5  error=52;
                 ; 0000 04A6  kananlancip();
                 ; 0000 04A7  scan=1;
                 ; 0000 04A8  }
                 ; 0000 04A9  }
                 ; 0000 04AA  */
                 ; 0000 04AB  // lancip kiri
                 ; 0000 04AC  if(samping==0b10){
                 _0x2B8:
00108c 91a0 0596 	LDS  R26,_samping
00108e 30a2      	CPI  R26,LOW(0x2)
00108f f441      	BRNE _0x2BA
                 ; 0000 04AD   if(depan==0){
001090 940e 19d4 	CALL SUBOPT_0x52
001092 9730      	SBIW R30,0
001093 f421      	BRNE _0x2BB
                 ; 0000 04AE   if(lock==0)ngerem();
001094 fe21      	SBRS R2,1
001095 dd4c      	RCALL _ngerem
                 ; 0000 04AF   lock=1;
001096 940e 19f4 	CALL SUBOPT_0x57
                 ; 0000 04B0   error=-52;
                 ; 0000 04B1   kirilancip();
                 ; 0000 04B2   scan=1;
                 ; 0000 04B3   }
                 ; 0000 04B4   }
                 _0x2BB:
                 ; 0000 04B5 
                 ; 0000 04B6 
                 ; 0000 04B7   if(depan==0b010000000000){
                 _0x2BA:
001098 940e 19ef 	CALL SUBOPT_0x56
00109a 30a0      	CPI  R26,LOW(0x400)
00109b e0e4      	LDI  R30,HIGH(0x400)
00109c 07be      	CPC  R27,R30
00109d f421      	BRNE _0x2BD
                 ; 0000 04B8   if(lock==0)ngerem();
00109e fe21      	SBRS R2,1
00109f dd42      	RCALL _ngerem
                 ; 0000 04B9   lock=1;
0010a0 940e 19f4 	CALL SUBOPT_0x57
                 ; 0000 04BA   error=-52;
                 ; 0000 04BB   kirilancip();
                 ; 0000 04BC   scan=1;
                 ; 0000 04BD   }
                 ; 0000 04BE 
                 ; 0000 04BF   if(depan==0b100000000000){
                 _0x2BD:
0010a2 940e 19ef 	CALL SUBOPT_0x56
0010a4 30a0      	CPI  R26,LOW(0x800)
0010a5 e0e8      	LDI  R30,HIGH(0x800)
0010a6 07be      	CPC  R27,R30
0010a7 f421      	BRNE _0x2BF
                 ; 0000 04C0   if(lock==0)ngerem();
0010a8 fe21      	SBRS R2,1
0010a9 dd38      	RCALL _ngerem
                 ; 0000 04C1   lock=1;
0010aa 940e 19f4 	CALL SUBOPT_0x57
                 ; 0000 04C2   error=-52;
                 ; 0000 04C3   kirilancip();
                 ; 0000 04C4   scan=1;
                 ; 0000 04C5   }
                 ; 0000 04C6 
                 ; 0000 04C7 
                 ; 0000 04C8 
                 ; 0000 04C9   }
                 _0x2BF:
                 ; 0000 04CA 
                 ; 0000 04CB 
                 ; 0000 04CC 
                 ; 0000 04CD 
                 ; 0000 04CE   }
                 _0x2B2:
                 _0x249:
                 ; 0000 04CF   if(samping1<=0){xcc=0;}
0010ac 91a0 0598 	LDS  R26,_samping1
0010ae 30a0      	CPI  R26,0
0010af f429      	BRNE _0x2C1
0010b0 e0e0      	LDI  R30,LOW(0)
0010b1 93e0 0287 	STS  _xcc,R30
0010b3 93e0 0288 	STS  _xcc+1,R30
                 ; 0000 04D0   if(samping1>0||cut[start+1]==5){
                 _0x2C1:
0010b5 91a0 0598 	LDS  R26,_samping1
0010b7 30a0      	CPI  R26,0
0010b8 f441      	BRNE _0x2C3
0010b9 940e 17fc 	CALL SUBOPT_0x8
                +
0010bb 5aed     +SUBI R30 , LOW ( - _cut - ( 1 ) )
0010bc 4ffb     +SBCI R31 , HIGH ( - _cut - ( 1 ) )
                 	__ADDW1MN _cut,1
0010bd 81a0      	LD   R26,Z
0010be 30a5      	CPI  R26,LOW(0x5)
0010bf f009      	BREQ _0x2C3
0010c0 c066      	RJMP _0x2C2
                 _0x2C3:
                 ; 0000 04D1         if(protec==0&&mode==1){
0010c1 91a0 051d 	LDS  R26,_protec
0010c3 30a0      	CPI  R26,LOW(0x0)
0010c4 f421      	BRNE _0x2C6
0010c5 91a0 0451 	LDS  R26,_mode
0010c7 30a1      	CPI  R26,LOW(0x1)
0010c8 f009      	BREQ _0x2C7
                 _0x2C6:
0010c9 c05d      	RJMP _0x2C5
                 _0x2C7:
                 ; 0000 04D2         if(time[start]>=timer[start]){
0010ca 940e 17fc 	CALL SUBOPT_0x8
0010cc 940e 19ac 	CALL SUBOPT_0x4D
0010ce f410      	BRSH PC+3
0010cf 940c 1124 	JMP _0x2C8
                 ; 0000 04D3         aktif=1;cacah=0;
0010d1 9468      	SET
0010d2 f820      	BLD  R2,0
0010d3 e0e0      	LDI  R30,LOW(0)
0010d4 93e0 0424 	STS  _cacah,R30
                 ; 0000 04D4         if(pass>0)start++;
0010d6 91a0 05c0 	LDS  R26,_pass
0010d8 91b0 05c1 	LDS  R27,_pass+1
0010da 940e 1b11 	CALL __CPW02
0010dc f42c      	BRGE _0x2C9
0010dd 91e0 03be 	LDS  R30,_start
0010df 5fef      	SUBI R30,-LOW(1)
0010e0 93e0 03be 	STS  _start,R30
                 ; 0000 04D5         counting=cut[start];
                 _0x2C9:
0010e2 940e 17fc 	CALL SUBOPT_0x8
0010e4 5aee      	SUBI R30,LOW(-_cut)
0010e5 4ffb      	SBCI R31,HIGH(-_cut)
0010e6 81e0      	LD   R30,Z
0010e7 93e0 051c 	STS  _counting,R30
                 ; 0000 04D6         if(counting==1||counting==2||counting==3||counting==4||counting==5){
0010e9 91a0 051c 	LDS  R26,_counting
0010eb 30a1      	CPI  R26,LOW(0x1)
0010ec f041      	BREQ _0x2CB
0010ed 30a2      	CPI  R26,LOW(0x2)
0010ee f031      	BREQ _0x2CB
0010ef 30a3      	CPI  R26,LOW(0x3)
0010f0 f021      	BREQ _0x2CB
0010f1 30a4      	CPI  R26,LOW(0x4)
0010f2 f011      	BREQ _0x2CB
0010f3 30a5      	CPI  R26,LOW(0x5)
0010f4 f4c9      	BRNE _0x2CA
                 _0x2CB:
                 ; 0000 04D7         if(lc1>0){
0010f5 940e 1967 	CALL SUBOPT_0x40
0010f7 940e 1b11 	CALL __CPW02
0010f9 f4a4      	BRGE _0x2CD
                 ; 0000 04D8         if(xcc<2)xcc++;
0010fa 91a0 0287 	LDS  R26,_xcc
0010fc 91b0 0288 	LDS  R27,_xcc+1
0010fe 9712      	SBIW R26,2
0010ff f424      	BRGE _0x2CE
001100 e8a7      	LDI  R26,LOW(_xcc)
001101 e0b2      	LDI  R27,HIGH(_xcc)
001102 940e 19ff 	CALL SUBOPT_0x58
                 ; 0000 04D9         if(xcc==1){
                 _0x2CE:
001104 91a0 0287 	LDS  R26,_xcc
001106 91b0 0288 	LDS  R27,_xcc+1
001108 9711      	SBIW R26,1
001109 f421      	BRNE _0x2CF
                 ; 0000 04DA         lmp=0;
00110a 98c3      	CBI  0x18,3
                 ; 0000 04DB         ngerem();
00110b dcd6      	RCALL _ngerem
                 ; 0000 04DC         aktif=0;
00110c 94e8      	CLT
00110d f820      	BLD  R2,0
                 ; 0000 04DD         }
                 ; 0000 04DE         }
                 _0x2CF:
                 ; 0000 04DF         }
                 _0x2CD:
                 ; 0000 04E0         if(counting==2){kanan();}
                 _0x2CA:
00110e 91a0 051c 	LDS  R26,_counting
001110 30a2      	CPI  R26,LOW(0x2)
001111 f411      	BRNE _0x2D2
001112 940e 03a5 	CALL _kanan
                 ; 0000 04E1         if(counting==3){kiri();}
                 _0x2D2:
001114 91a0 051c 	LDS  R26,_counting
001116 30a3      	CPI  R26,LOW(0x3)
001117 f411      	BRNE _0x2D3
001118 940e 03b1 	CALL _kiri
                 ; 0000 04E2         if(counting==4){no_line();}
                 _0x2D3:
00111a 91a0 051c 	LDS  R26,_counting
00111c 30a4      	CPI  R26,LOW(0x4)
00111d f409      	BRNE _0x2D4
00111e dc92      	RCALL _no_line
                 ; 0000 04E3         if(counting==5){stop_time();}
                 _0x2D4:
00111f 91a0 051c 	LDS  R26,_counting
001121 30a5      	CPI  R26,LOW(0x5)
001122 f409      	BRNE _0x2D5
001123 dc52      	RCALL _stop_time
                 ; 0000 04E4         }
                 _0x2D5:
                 ; 0000 04E5         protec=1;
                 _0x2C8:
001124 e0e1      	LDI  R30,LOW(1)
001125 93e0 051d 	STS  _protec,R30
                 ; 0000 04E6         }
                 ; 0000 04E7         }
                 _0x2C5:
                 ; 0000 04E8 
                 ; 0000 04E9 // rumus PID
                 ; 0000 04EA rumus_pid();
                 _0x2C2:
001127 940e 02d5 	CALL _rumus_pid
                 ; 0000 04EB if(max1==0)motor(0,0);
001129 2c08      	MOV  R0,R8
00112a 2809      	OR   R0,R9
00112b f429      	BRNE _0x2D6
00112c 940e 1832 	CALL SUBOPT_0xF
00112e 93fa      	ST   -Y,R31
00112f 93ea      	ST   -Y,R30
001130 c004      	RJMP _0x37B
                 ; 0000 04EC else motor(lpwm,rpwm);
                 _0x2D6:
001131 927a      	ST   -Y,R7
001132 926a      	ST   -Y,R6
001133 925a      	ST   -Y,R5
001134 924a      	ST   -Y,R4
                 _0x37B:
001135 940e 031d 	CALL _motor
                 ; 0000 04ED if(error>=-11&&error<=11){
001137 940e 180e 	CALL SUBOPT_0xC
001139 3fa5      	CPI  R26,LOW(0xFFF5)
00113a efef      	LDI  R30,HIGH(0xFFF5)
00113b 07be      	CPC  R27,R30
00113c f024      	BRLT _0x2D9
00113d 940e 180e 	CALL SUBOPT_0xC
00113f 971c      	SBIW R26,12
001140 f00c      	BRLT _0x2DA
                 _0x2D9:
001141 c006      	RJMP _0x2D8
                 _0x2DA:
                 ; 0000 04EE  scan=0;aktif=0;
001142 e0e0      	LDI  R30,LOW(0)
001143 93e0 05b5 	STS  _scan,R30
001145 94e8      	CLT
001146 f820      	BLD  R2,0
                 ; 0000 04EF }
                 ; 0000 04F0 else if ((error>50)||(error<-50)){
001147 c01c      	RJMP _0x2DB
                 _0x2D8:
001148 940e 180e 	CALL SUBOPT_0xC
00114a 97d3      	SBIW R26,51
00114b f434      	BRGE _0x2DD
00114c 940e 180e 	CALL SUBOPT_0xC
00114e 3cae      	CPI  R26,LOW(0xFFCE)
00114f efef      	LDI  R30,HIGH(0xFFCE)
001150 07be      	CPC  R27,R30
001151 f494      	BRGE _0x2DC
                 _0x2DD:
                 ; 0000 04F1  scan=1;
001152 e0e1      	LDI  R30,LOW(1)
001153 93e0 05b5 	STS  _scan,R30
                 ; 0000 04F2         if(error==52)kananlancip();
001155 940e 180e 	CALL SUBOPT_0xC
001157 97d4      	SBIW R26,52
001158 f419      	BRNE _0x2DF
001159 940e 0395 	CALL _kananlancip
                 ; 0000 04F3         else if(error==-52)kirilancip();
00115b c008      	RJMP _0x2E0
                 _0x2DF:
00115c 940e 180e 	CALL SUBOPT_0xC
00115e 3cac      	CPI  R26,LOW(0xFFCC)
00115f efef      	LDI  R30,HIGH(0xFFCC)
001160 07be      	CPC  R27,R30
001161 f411      	BRNE _0x2E1
001162 940e 039d 	CALL _kirilancip
                 ; 0000 04F4  }
                 _0x2E1:
                 _0x2E0:
                 ; 0000 04F5  lcd_gotoxy(0,1);
                 _0x2DC:
                 _0x2DB:
001164 940e 185f 	CALL SUBOPT_0x13
                 ; 0000 04F6  //sprintf(buff,"%03d<%02d>%03d %03d   ",lpwm,start,rpwm,cacah);
                 ; 0000 04F7  sprintf(buff,"%03d <%02d> %03d %03d   ",lpwm,error,rpwm,cacah);
001166 940e 186d 	CALL SUBOPT_0x16
                +
001168 ebef     +LDI R30 , LOW ( 2 * _0x0 + ( 853 ) )
001169 e0f3     +LDI R31 , HIGH ( 2 * _0x0 + ( 853 ) )
                 	__POINTW1FN _0x0,853
00116a 93fa      	ST   -Y,R31
00116b 93ea      	ST   -Y,R30
00116c 01f3      	MOVW R30,R6
00116d 940e 19b6 	CALL SUBOPT_0x4E
00116f 940e 1800 	CALL SUBOPT_0x9
001171 940e 19b6 	CALL SUBOPT_0x4E
001173 01f2      	MOVW R30,R4
001174 940e 19b6 	CALL SUBOPT_0x4E
001176 91e0 0424 	LDS  R30,_cacah
001178 940e 1872 	CALL SUBOPT_0x17
00117a 940e 19bb 	CALL SUBOPT_0x4F
                 ; 0000 04F8  lcd_puts(buff);
00117c 940e 176d 	CALL _lcd_puts
                 ; 0000 04F9  }
00117e 9508      	RET
                 ;// Declare your global variables here
                 ;
                 ;
                 ;
                 ;
                 ;
                 ;
                 ;
                 ;void pilihStart(){
                 ; 0000 0502 void pilihStart(){
                 _pilihStart:
                 ; 0000 0503 while(1){
                 _0x2E2:
                 ; 0000 0504 if(!s6){pilih_start=pilih_start+1;delay_ms(200);}
00117f 999d      	SBIC 0x13,5
001180 c00b      	RJMP _0x2E5
001181 91e0 05e3 	LDS  R30,_pilih_start
001183 91f0 05e4 	LDS  R31,_pilih_start+1
001185 9631      	ADIW R30,1
001186 93e0 05e3 	STS  _pilih_start,R30
001188 93f0 05e4 	STS  _pilih_start+1,R31
00118a 940e 1a05 	CALL SUBOPT_0x59
                 ; 0000 0505             if(pilih_start=4){pilih_start=0;}
                 _0x2E5:
00118c e0e4      	LDI  R30,LOW(4)
00118d e0f0      	LDI  R31,HIGH(4)
00118e 93e0 05e3 	STS  _pilih_start,R30
001190 93f0 05e4 	STS  _pilih_start+1,R31
001192 9730      	SBIW R30,0
001193 f029      	BREQ _0x2E6
001194 e0e0      	LDI  R30,LOW(0)
001195 93e0 05e3 	STS  _pilih_start,R30
001197 93e0 05e4 	STS  _pilih_start+1,R30
                 ; 0000 0506                 if(pilih_start==0){
                 _0x2E6:
001199 91e0 05e3 	LDS  R30,_pilih_start
00119b 91f0 05e4 	LDS  R31,_pilih_start+1
00119d 9730      	SBIW R30,0
00119e f451      	BRNE _0x2E7
                 ; 0000 0507                     lcd_gotoxy(0,1);
00119f 940e 185f 	CALL SUBOPT_0x13
                 ; 0000 0508                     lcd_putsf(".Start=A");
                +
0011a1 ede8     +LDI R30 , LOW ( 2 * _0x0 + ( 878 ) )
0011a2 e0f3     +LDI R31 , HIGH ( 2 * _0x0 + ( 878 ) )
                 	__POINTW1FN _0x0,878
0011a3 940e 17f2 	CALL SUBOPT_0x6
                 ; 0000 0509                     lcd_gotoxy(9,1);
0011a5 940e 1a08 	CALL SUBOPT_0x5A
                 ; 0000 050A                     lcd_putsf(" CP=1");
0011a7 940e 1a0b 	CALL SUBOPT_0x5B
                 ; 0000 050B                 }
                 ; 0000 050C 
                 ; 0000 050D                 if(pilih_start==1){
                 _0x2E7:
0011a9 940e 1a0e 	CALL SUBOPT_0x5C
0011ab 9711      	SBIW R26,1
0011ac f451      	BRNE _0x2E8
                 ; 0000 050E                     lcd_gotoxy(0,1);
0011ad 940e 185f 	CALL SUBOPT_0x13
                 ; 0000 050F                     lcd_putsf(".Start=B");
                +
0011af eee7     +LDI R30 , LOW ( 2 * _0x0 + ( 893 ) )
0011b0 e0f3     +LDI R31 , HIGH ( 2 * _0x0 + ( 893 ) )
                 	__POINTW1FN _0x0,893
0011b1 940e 17f2 	CALL SUBOPT_0x6
                 ; 0000 0510                     lcd_gotoxy(9,1);
0011b3 940e 1a08 	CALL SUBOPT_0x5A
                 ; 0000 0511                     lcd_putsf(" CP=1");
0011b5 940e 1a0b 	CALL SUBOPT_0x5B
                 ; 0000 0512                 }
                 ; 0000 0513 
                 ; 0000 0514                 if(pilih_start==2){
                 _0x2E8:
0011b7 940e 1a0e 	CALL SUBOPT_0x5C
0011b9 9712      	SBIW R26,2
0011ba f451      	BRNE _0x2E9
                 ; 0000 0515                     lcd_gotoxy(0,1);
0011bb 940e 185f 	CALL SUBOPT_0x13
                 ; 0000 0516                     lcd_putsf(".Start=C");
                +
0011bd efe0     +LDI R30 , LOW ( 2 * _0x0 + ( 902 ) )
0011be e0f3     +LDI R31 , HIGH ( 2 * _0x0 + ( 902 ) )
                 	__POINTW1FN _0x0,902
0011bf 940e 17f2 	CALL SUBOPT_0x6
                 ; 0000 0517                     lcd_gotoxy(9,1);
0011c1 940e 1a08 	CALL SUBOPT_0x5A
                 ; 0000 0518                     lcd_putsf(" CP=1");
0011c3 940e 1a0b 	CALL SUBOPT_0x5B
                 ; 0000 0519                 }
                 ; 0000 051A 
                 ; 0000 051B                 if(pilih_start==3){
                 _0x2E9:
0011c5 940e 1a0e 	CALL SUBOPT_0x5C
0011c7 9713      	SBIW R26,3
0011c8 f451      	BRNE _0x2EA
                 ; 0000 051C                     lcd_gotoxy(0,1);
0011c9 940e 185f 	CALL SUBOPT_0x13
                 ; 0000 051D                     lcd_putsf(".Start=D");
                +
0011cb efe9     +LDI R30 , LOW ( 2 * _0x0 + ( 911 ) )
0011cc e0f3     +LDI R31 , HIGH ( 2 * _0x0 + ( 911 ) )
                 	__POINTW1FN _0x0,911
0011cd 940e 17f2 	CALL SUBOPT_0x6
                 ; 0000 051E                     lcd_gotoxy(9,1);
0011cf 940e 1a08 	CALL SUBOPT_0x5A
                 ; 0000 051F                     lcd_putsf(" CP=1");
0011d1 940e 1a0b 	CALL SUBOPT_0x5B
                 ; 0000 0520                 }
                 ; 0000 0521 }
                 _0x2EA:
0011d3 cfab      	RJMP _0x2E2
                 ; 0000 0522 
                 ; 0000 0523 }
                 ;
                 ;
                 ;
                 ;
                 ;
                 ;
                 ;void main(void)
                 ; 0000 052B {
                 _main:
                 ; 0000 052C int p_start=0;
                 ; 0000 052D 
                 ; 0000 052E PORTA=0xFF;
                 ;	p_start -> R16,R17
                +
0011d4 e000     +LDI R16 , LOW ( 0 )
0011d5 e010     +LDI R17 , HIGH ( 0 )
                 	__GETWRN 16,17,0
0011d6 efef      	LDI  R30,LOW(255)
0011d7 bbeb      	OUT  0x1B,R30
                 ; 0000 052F DDRA=0x00;
0011d8 e0e0      	LDI  R30,LOW(0)
0011d9 bbea      	OUT  0x1A,R30
                 ; 0000 0530 PORTB=0x00;
0011da bbe8      	OUT  0x18,R30
                 ; 0000 0531 DDRB=0x08;
0011db e0e8      	LDI  R30,LOW(8)
0011dc bbe7      	OUT  0x17,R30
                 ; 0000 0532 PORTC=0x3F;
0011dd e3ef      	LDI  R30,LOW(63)
0011de bbe5      	OUT  0x15,R30
                 ; 0000 0533 DDRC=0xC0;
0011df ece0      	LDI  R30,LOW(192)
0011e0 bbe4      	OUT  0x14,R30
                 ; 0000 0534 PORTD=0x81;
0011e1 e8e1      	LDI  R30,LOW(129)
0011e2 bbe2      	OUT  0x12,R30
                 ; 0000 0535 DDRD=0xFE;
0011e3 efee      	LDI  R30,LOW(254)
0011e4 bbe1      	OUT  0x11,R30
                 ; 0000 0536 TCCR0=0x05;
0011e5 e0e5      	LDI  R30,LOW(5)
0011e6 bfe3      	OUT  0x33,R30
                 ; 0000 0537 TIMSK=0x01;
0011e7 e0e1      	LDI  R30,LOW(1)
0011e8 bfe9      	OUT  0x39,R30
                 ; 0000 0538 ADCSRA=0x84;
0011e9 e8e4      	LDI  R30,LOW(132)
0011ea b9e6      	OUT  0x6,R30
                 ; 0000 0539 lcd_init(16);
0011eb e1e0      	LDI  R30,LOW(16)
0011ec 93ea      	ST   -Y,R30
0011ed 940e 178b 	CALL _lcd_init
                 ; 0000 053A lcd_gotoxy(2,0);
0011ef e0e2      	LDI  R30,LOW(2)
0011f0 93ea      	ST   -Y,R30
0011f1 e0e0      	LDI  R30,LOW(0)
0011f2 93ea      	ST   -Y,R30
0011f3 940e 172c 	CALL _lcd_gotoxy
                 ; 0000 053B lcd_puts("  Welcome To");
                +
0011f5 e6e0     +LDI R30 , LOW ( _0x2EB + ( 0 ) )
0011f6 e0f2     +LDI R31 , HIGH ( _0x2EB + ( 0 ) )
                 	__POINTW1MN _0x2EB,0
0011f7 93fa      	ST   -Y,R31
0011f8 93ea      	ST   -Y,R30
0011f9 940e 176d 	CALL _lcd_puts
                 ; 0000 053C delay_ms(200);
0011fb 940e 1a05 	CALL SUBOPT_0x59
                 ; 0000 053D lcd_gotoxy(3,1);
0011fd e0e3      	LDI  R30,LOW(3)
0011fe 93ea      	ST   -Y,R30
0011ff 940e 17d9 	CALL SUBOPT_0x1
                 ; 0000 053E lcd_puts(" TEUM CORP.");
                +
001201 e6ed     +LDI R30 , LOW ( _0x2EB + ( 13 ) )
001202 e0f2     +LDI R31 , HIGH ( _0x2EB + ( 13 ) )
                 	__POINTW1MN _0x2EB,13
001203 93fa      	ST   -Y,R31
001204 93ea      	ST   -Y,R30
001205 940e 176d 	CALL _lcd_puts
                 ; 0000 053F pwm_off();
001207 940e 1898 	CALL SUBOPT_0x1D
                 ; 0000 0540 stop();
                 ; 0000 0541 delay_ms(1000);
001209 eee8      	LDI  R30,LOW(1000)
00120a e0f3      	LDI  R31,HIGH(1000)
00120b 940e 18ae 	CALL SUBOPT_0x22
                 ; 0000 0542 
                 ; 0000 0543 if(!s3){
00120d 999b      	SBIC 0x13,3
00120e c11a      	RJMP _0x2EC
                 ; 0000 0544 int n=0;
                 ; 0000 0545 lmp=1;
00120f 9722      	SBIW R28,2
001210 e0e0      	LDI  R30,LOW(0)
001211 83e8      	ST   Y,R30
001212 83e9      	STD  Y+1,R30
                 ;	n -> Y+0
001213 9ac3      	SBI  0x18,3
                 ; 0000 0546 lcd_clear();
001214 940e 173d 	CALL _lcd_clear
                 ; 0000 0547 delay_ms(500);
001216 940e 1862 	CALL SUBOPT_0x14
                 ; 0000 0548 
                 ; 0000 0549 while(1){
                 _0x2EF:
                 ; 0000 054A 
                 ; 0000 054B if(!s3){n=n+1;lcd_clear();delay_ms(200);}
001218 999b      	SBIC 0x13,3
001219 c004      	RJMP _0x2F2
00121a 940e 1943 	CALL SUBOPT_0x3A
00121c 940e 1a05 	CALL SUBOPT_0x59
                 ; 0000 054C if(n==2){n=0;}
                 _0x2F2:
00121e 81a8      	LD   R26,Y
00121f 81b9      	LDD  R27,Y+1
001220 9712      	SBIW R26,2
001221 f419      	BRNE _0x2F3
001222 e0e0      	LDI  R30,LOW(0)
001223 83e8      	STD  Y+0,R30
001224 83e9      	STD  Y+0+1,R30
                 ; 0000 054D 
                 ; 0000 054E     if(n==0){
                 _0x2F3:
001225 81e8      	LD   R30,Y
001226 81f9      	LDD  R31,Y+1
001227 9730      	SBIW R30,0
001228 f489      	BRNE _0x2F4
                 ; 0000 054F     lcd_gotoxy(0,0);
001229 940e 1868 	CALL SUBOPT_0x15
                 ; 0000 0550     lcd_putsf("Format Data[N]");
                +
00122b e1eb     +LDI R30 , LOW ( 2 * _0x0 + ( 945 ) )
00122c e0f4     +LDI R31 , HIGH ( 2 * _0x0 + ( 945 ) )
                 	__POINTW1FN _0x0,945
00122d 940e 17f2 	CALL SUBOPT_0x6
                 ; 0000 0551         if(!s2){
00122f 999a      	SBIC 0x13,2
001230 c009      	RJMP _0x2F5
                 ; 0000 0552          lcd_gotoxy(0,0);
001231 940e 1868 	CALL SUBOPT_0x15
                 ; 0000 0553          lcd_putsf("batal format");
                +
001233 e2ea     +LDI R30 , LOW ( 2 * _0x0 + ( 960 ) )
001234 e0f4     +LDI R31 , HIGH ( 2 * _0x0 + ( 960 ) )
                 	__POINTW1FN _0x0,960
001235 940e 17f2 	CALL SUBOPT_0x6
                 ; 0000 0554          delay_ms(500);
001237 940e 1862 	CALL SUBOPT_0x14
                 ; 0000 0555          goto exit;}
001239 c20c      	RJMP _0x2F6
                 ; 0000 0556     }
                 _0x2F5:
                 ; 0000 0557 
                 ; 0000 0558     if(n==1){
                 _0x2F4:
00123a 81a8      	LD   R26,Y
00123b 81b9      	LDD  R27,Y+1
00123c 9711      	SBIW R26,1
00123d f011      	BREQ PC+3
00123e 940c 1328 	JMP _0x2F7
                 ; 0000 0559     lcd_gotoxy(0,0);
001240 940e 1868 	CALL SUBOPT_0x15
                 ; 0000 055A     lcd_putsf("Format Data[Y]");
                +
001242 e3e7     +LDI R30 , LOW ( 2 * _0x0 + ( 973 ) )
001243 e0f4     +LDI R31 , HIGH ( 2 * _0x0 + ( 973 ) )
                 	__POINTW1FN _0x0,973
001244 940e 17f2 	CALL SUBOPT_0x6
                 ; 0000 055B         if(!s2){
001246 999a      	SBIC 0x13,2
001247 c0e0      	RJMP _0x2F8
                 ; 0000 055C         lcd_gotoxy(0,0);
001248 940e 1868 	CALL SUBOPT_0x15
                 ; 0000 055D         lcd_putsf("Proses Format");
                +
00124a e4e6     +LDI R30 , LOW ( 2 * _0x0 + ( 988 ) )
00124b e0f4     +LDI R31 , HIGH ( 2 * _0x0 + ( 988 ) )
                 	__POINTW1FN _0x0,988
00124c 940e 17f2 	CALL SUBOPT_0x6
                 ; 0000 055E 
                 ; 0000 055F lcd_gotoxy(0,1);
00124e 940e 185f 	CALL SUBOPT_0x13
                 ; 0000 0560 lcd_putsf("................");
                +
001250 e5e4     +LDI R30 , LOW ( 2 * _0x0 + ( 1002 ) )
001251 e0f4     +LDI R31 , HIGH ( 2 * _0x0 + ( 1002 ) )
                 	__POINTW1FN _0x0,1002
001252 940e 17f2 	CALL SUBOPT_0x6
                 ; 0000 0561 //-------------start formating--------//
                 ; 0000 0562 for(count2=1;count2<=batas;count2++){ecut[count2]=1;}
001254 e0e1      	LDI  R30,LOW(1)
001255 93e0 03bd 	STS  _count2,R30
                 _0x2FA:
001257 940e 18e2 	CALL SUBOPT_0x2B
001259 f050      	BRLO _0x2FB
00125a 940e 18e8 	CALL SUBOPT_0x2C
00125c 59a9      	SUBI R26,LOW(-_ecut)
00125d 4fbe      	SBCI R27,HIGH(-_ecut)
00125e e0e1      	LDI  R30,LOW(1)
00125f 940e 1b00 	CALL __EEPROMWRB
001261 940e 18f0 	CALL SUBOPT_0x2E
001263 cff3      	RJMP _0x2FA
                 _0x2FB:
                 ; 0000 0563 for(count2=1;count2<=batas;count2++){ecut1[count2]=1;}
001264 e0e1      	LDI  R30,LOW(1)
001265 93e0 03bd 	STS  _count2,R30
                 _0x2FD:
001267 940e 18e2 	CALL SUBOPT_0x2B
001269 f050      	BRLO _0x2FE
00126a 940e 18e8 	CALL SUBOPT_0x2C
00126c 53a4      	SUBI R26,LOW(-_ecut1)
00126d 4fbe      	SBCI R27,HIGH(-_ecut1)
00126e e0e1      	LDI  R30,LOW(1)
00126f 940e 1b00 	CALL __EEPROMWRB
001271 940e 18f0 	CALL SUBOPT_0x2E
001273 cff3      	RJMP _0x2FD
                 _0x2FE:
                 ; 0000 0564 for(count2=1;count2<=batas;count2++){edel[count2]=255;}
001274 e0e1      	LDI  R30,LOW(1)
001275 93e0 03bd 	STS  _count2,R30
                 _0x300:
001277 940e 18e2 	CALL SUBOPT_0x2B
001279 f050      	BRLO _0x301
00127a 940e 18e8 	CALL SUBOPT_0x2C
00127c 5caf      	SUBI R26,LOW(-_edel)
00127d 4fbd      	SBCI R27,HIGH(-_edel)
00127e efef      	LDI  R30,LOW(255)
00127f 940e 1b00 	CALL __EEPROMWRB
001281 940e 18f0 	CALL SUBOPT_0x2E
001283 cff3      	RJMP _0x300
                 _0x301:
                 ; 0000 0565 for(count2=0;count2<=20;count2++){eread[count2]=0;}
001284 e0e0      	LDI  R30,LOW(0)
001285 93e0 03bd 	STS  _count2,R30
                 _0x303:
001287 91a0 03bd 	LDS  R26,_count2
001289 31a5      	CPI  R26,LOW(0x15)
00128a f450      	BRSH _0x304
00128b 940e 18e8 	CALL SUBOPT_0x2C
00128d 5aae      	SUBI R26,LOW(-_eread)
00128e 4fbe      	SBCI R27,HIGH(-_eread)
00128f e0e0      	LDI  R30,LOW(0)
001290 940e 1b00 	CALL __EEPROMWRB
001292 940e 18f0 	CALL SUBOPT_0x2E
001294 cff2      	RJMP _0x303
                 _0x304:
                 ; 0000 0566 for(count2=0;count2<=20;count2++){eplan[count2]=0;}
001295 e0e0      	LDI  R30,LOW(0)
001296 93e0 03bd 	STS  _count2,R30
                 _0x306:
001298 91a0 03bd 	LDS  R26,_count2
00129a 31a5      	CPI  R26,LOW(0x15)
00129b f450      	BRSH _0x307
00129c 940e 18e8 	CALL SUBOPT_0x2C
00129e 5ca3      	SUBI R26,LOW(-_eplan)
00129f 4fbe      	SBCI R27,HIGH(-_eplan)
0012a0 e0e0      	LDI  R30,LOW(0)
0012a1 940e 1b00 	CALL __EEPROMWRB
0012a3 940e 18f0 	CALL SUBOPT_0x2E
0012a5 cff2      	RJMP _0x306
                 _0x307:
                 ; 0000 0567 for(count2=0;count2<=batas;count2++){espeed[count2]=100;}
0012a6 e0e0      	LDI  R30,LOW(0)
0012a7 93e0 03bd 	STS  _count2,R30
                 _0x309:
0012a9 940e 18e2 	CALL SUBOPT_0x2B
0012ab f050      	BRLO _0x30A
0012ac 940e 18e8 	CALL SUBOPT_0x2C
0012ae 5fa2      	SUBI R26,LOW(-_espeed)
0012af 4fbf      	SBCI R27,HIGH(-_espeed)
0012b0 e6e4      	LDI  R30,LOW(100)
0012b1 940e 1b00 	CALL __EEPROMWRB
0012b3 940e 18f0 	CALL SUBOPT_0x2E
0012b5 cff3      	RJMP _0x309
                 _0x30A:
                 ; 0000 0568 for(count2=0;count2<=batas;count2++){espeed1[count2]=80;}
0012b6 e0e0      	LDI  R30,LOW(0)
0012b7 93e0 03bd 	STS  _count2,R30
                 _0x30C:
0012b9 940e 18e2 	CALL SUBOPT_0x2B
0012bb f050      	BRLO _0x30D
0012bc 940e 18e8 	CALL SUBOPT_0x2C
0012be 58ad      	SUBI R26,LOW(-_espeed1)
0012bf 4fbf      	SBCI R27,HIGH(-_espeed1)
0012c0 e5e0      	LDI  R30,LOW(80)
0012c1 940e 1b00 	CALL __EEPROMWRB
0012c3 940e 18f0 	CALL SUBOPT_0x2E
0012c5 cff3      	RJMP _0x30C
                 _0x30D:
                 ; 0000 0569 for(count2=0;count2<=batas;count2++){etimer[count2]=1;}
0012c6 e0e0      	LDI  R30,LOW(0)
0012c7 93e0 03bd 	STS  _count2,R30
                 _0x30F:
0012c9 940e 18e2 	CALL SUBOPT_0x2B
0012cb f050      	BRLO _0x310
0012cc 940e 18e8 	CALL SUBOPT_0x2C
0012ce 52a8      	SUBI R26,LOW(-_etimer)
0012cf 4fbf      	SBCI R27,HIGH(-_etimer)
0012d0 e0e1      	LDI  R30,LOW(1)
0012d1 940e 1b00 	CALL __EEPROMWRB
0012d3 940e 18f0 	CALL SUBOPT_0x2E
0012d5 cff3      	RJMP _0x30F
                 _0x310:
                 ; 0000 056A for(adc=0;adc<16;adc++){esensitive[adc]=100;}
0012d6 e0e0      	LDI  R30,LOW(0)
0012d7 93e0 0594 	STS  _adc,R30
                 _0x312:
0012d9 91a0 0594 	LDS  R26,_adc
0012db 31a0      	CPI  R26,LOW(0x10)
0012dc f440      	BRSH _0x313
0012dd 940e 1a13 	CALL SUBOPT_0x5D
0012df e6e4      	LDI  R30,LOW(100)
0012e0 940e 1b00 	CALL __EEPROMWRB
0012e2 940e 199f 	CALL SUBOPT_0x4B
0012e4 cff4      	RJMP _0x312
                 _0x313:
                 ; 0000 056B lmp=1;
0012e5 9ac3      	SBI  0x18,3
                 ; 0000 056C eencomp=0;
0012e6 e9a6      	LDI  R26,LOW(_eencomp)
0012e7 e0b2      	LDI  R27,HIGH(_eencomp)
0012e8 e0e0      	LDI  R30,LOW(0)
0012e9 940e 1b00 	CALL __EEPROMWRB
                 ; 0000 056D emode=0;
0012eb e9a7      	LDI  R26,LOW(_emode)
0012ec e0b2      	LDI  R27,HIGH(_emode)
0012ed 940e 1b00 	CALL __EEPROMWRB
                 ; 0000 056E emodekanan=0;
0012ef e9a8      	LDI  R26,LOW(_emodekanan)
0012f0 e0b2      	LDI  R27,HIGH(_emodekanan)
0012f1 940e 1b00 	CALL __EEPROMWRB
                 ; 0000 056F epulsa=5;
0012f3 e9a9      	LDI  R26,LOW(_epulsa)
0012f4 e0b2      	LDI  R27,HIGH(_epulsa)
0012f5 e0e5      	LDI  R30,LOW(5)
0012f6 940e 1b00 	CALL __EEPROMWRB
                 ; 0000 0570 ekp=10;
0012f8 e9aa      	LDI  R26,LOW(_ekp)
0012f9 e0b2      	LDI  R27,HIGH(_ekp)
0012fa e0ea      	LDI  R30,LOW(10)
0012fb 940e 1b00 	CALL __EEPROMWRB
                 ; 0000 0571 ekd=100;
0012fd e9ab      	LDI  R26,LOW(_ekd)
0012fe e0b2      	LDI  R27,HIGH(_ekd)
0012ff e6e4      	LDI  R30,LOW(100)
001300 940e 1b00 	CALL __EEPROMWRB
                 ; 0000 0572 eki=0;
001302 e9ac      	LDI  R26,LOW(_eki)
001303 e0b2      	LDI  R27,HIGH(_eki)
001304 e0e0      	LDI  R30,LOW(0)
001305 940e 1b00 	CALL __EEPROMWRB
                 ; 0000 0573 elc=120;
001307 e9ad      	LDI  R26,LOW(_elc)
001308 e0b2      	LDI  R27,HIGH(_elc)
001309 e7e8      	LDI  R30,LOW(120)
00130a 940e 1b00 	CALL __EEPROMWRB
                 ; 0000 0574 elc1=0;
00130c e9ae      	LDI  R26,LOW(_elc1)
00130d e0b2      	LDI  R27,HIGH(_elc1)
00130e e0e0      	LDI  R30,LOW(0)
00130f 940e 1b00 	CALL __EEPROMWRB
                 ; 0000 0575 evc=120;
001311 e9af      	LDI  R26,LOW(_evc)
001312 e0b2      	LDI  R27,HIGH(_evc)
001313 e7e8      	LDI  R30,LOW(120)
001314 940e 1b00 	CALL __EEPROMWRB
                 ; 0000 0576 emax1=100;
001316 eaa0      	LDI  R26,LOW(_emax1)
001317 e0b2      	LDI  R27,HIGH(_emax1)
001318 e6e4      	LDI  R30,LOW(100)
001319 940e 1b00 	CALL __EEPROMWRB
                 ; 0000 0577 loading();
00131b 940e 0283 	CALL _loading
                 ; 0000 0578 lcd_gotoxy(0,0);
00131d 940e 1868 	CALL SUBOPT_0x15
                 ; 0000 0579 lcd_putsf("Format Selesai!");
                +
00131f e6e5     +LDI R30 , LOW ( 2 * _0x0 + ( 1019 ) )
001320 e0f4     +LDI R31 , HIGH ( 2 * _0x0 + ( 1019 ) )
                 	__POINTW1FN _0x0,1019
001321 940e 17f2 	CALL SUBOPT_0x6
                 ; 0000 057A delay_ms(1000);
001323 eee8      	LDI  R30,LOW(1000)
001324 e0f3      	LDI  R31,HIGH(1000)
001325 940e 18ae 	CALL SUBOPT_0x22
                 ; 0000 057B 
                 ; 0000 057C goto exit;
001327 c11e      	RJMP _0x2F6
                 ; 0000 057D 
                 ; 0000 057E 
                 ; 0000 057F         }
                 ; 0000 0580 
                 ; 0000 0581     }
                 _0x2F8:
                 ; 0000 0582 
                 ; 0000 0583   }
                 _0x2F7:
001328 ceef      	RJMP _0x2EF
                 ; 0000 0584 
                 ; 0000 0585 }
                 ; 0000 0586 
                 ; 0000 0587 exit2:
                 _0x2EC:
                 _0x316:
                 ; 0000 0588 stop();
001329 940e 038a 	CALL _stop
                 ; 0000 0589 lmp=1;
00132b 9ac3      	SBI  0x18,3
                 ; 0000 058A //-------------data dari eeprom di copy ke ram--------//
                 ; 0000 058B for(count2=1;count2<=batas;count2++){cut[count2]=ecut[count2];}
00132c e0e1      	LDI  R30,LOW(1)
00132d 93e0 03bd 	STS  _count2,R30
                 _0x31A:
00132f 940e 18e2 	CALL SUBOPT_0x2B
001331 f060      	BRLO _0x31B
001332 940e 18ec 	CALL SUBOPT_0x2D
001334 5aee      	SUBI R30,LOW(-_cut)
001335 4ffb      	SBCI R31,HIGH(-_cut)
001336 010f      	MOVW R0,R30
001337 940e 18e8 	CALL SUBOPT_0x2C
001339 940e 1a19 	CALL SUBOPT_0x5E
00133b 940e 18f0 	CALL SUBOPT_0x2E
00133d cff1      	RJMP _0x31A
                 _0x31B:
                 ; 0000 058C for(count2=1;count2<=batas;count2++){cut1[count2]=ecut1[count2];}
00133e e0e1      	LDI  R30,LOW(1)
00133f 93e0 03bd 	STS  _count2,R30
                 _0x31D:
001341 940e 18e2 	CALL SUBOPT_0x2B
001343 f060      	BRLO _0x31E
001344 940e 18ec 	CALL SUBOPT_0x2D
001346 54e9      	SUBI R30,LOW(-_cut1)
001347 4ffb      	SBCI R31,HIGH(-_cut1)
001348 010f      	MOVW R0,R30
001349 940e 18e8 	CALL SUBOPT_0x2C
00134b 940e 1a20 	CALL SUBOPT_0x5F
00134d 940e 18f0 	CALL SUBOPT_0x2E
00134f cff1      	RJMP _0x31D
                 _0x31E:
                 ; 0000 058D for(count2=1;count2<=batas;count2++){del[count2]=edel[count2];}
001350 e0e1      	LDI  R30,LOW(1)
001351 93e0 03bd 	STS  _count2,R30
                 _0x320:
001353 940e 18e2 	CALL SUBOPT_0x2B
001355 f060      	BRLO _0x321
001356 940e 18ec 	CALL SUBOPT_0x2D
001358 5ee2      	SUBI R30,LOW(-_del)
001359 4ffa      	SBCI R31,HIGH(-_del)
00135a 010f      	MOVW R0,R30
00135b 940e 18e8 	CALL SUBOPT_0x2C
00135d 940e 1a27 	CALL SUBOPT_0x60
00135f 940e 18f0 	CALL SUBOPT_0x2E
001361 cff1      	RJMP _0x320
                 _0x321:
                 ; 0000 058E for(count2=0;count2<=20;count2++){read[count2]=eread[count2];}
001362 e0e0      	LDI  R30,LOW(0)
001363 93e0 03bd 	STS  _count2,R30
                 _0x323:
001365 91a0 03bd 	LDS  R26,_count2
001367 31a5      	CPI  R26,LOW(0x15)
001368 f460      	BRSH _0x324
001369 940e 18ec 	CALL SUBOPT_0x2D
00136b 5ce5      	SUBI R30,LOW(-_read)
00136c 4ffb      	SBCI R31,HIGH(-_read)
00136d 010f      	MOVW R0,R30
00136e 940e 18e8 	CALL SUBOPT_0x2C
001370 940e 1a2e 	CALL SUBOPT_0x61
001372 940e 18f0 	CALL SUBOPT_0x2E
001374 cff0      	RJMP _0x323
                 _0x324:
                 ; 0000 058F for(count2=0;count2<=20;count2++){plan[count2]=eplan[count2];}
001375 e0e0      	LDI  R30,LOW(0)
001376 93e0 03bd 	STS  _count2,R30
                 _0x326:
001378 91a0 03bd 	LDS  R26,_count2
00137a 31a5      	CPI  R26,LOW(0x15)
00137b f460      	BRSH _0x327
00137c 940e 18ec 	CALL SUBOPT_0x2D
00137e 5dea      	SUBI R30,LOW(-_plan)
00137f 4ffb      	SBCI R31,HIGH(-_plan)
001380 010f      	MOVW R0,R30
001381 940e 18e8 	CALL SUBOPT_0x2C
001383 940e 1a35 	CALL SUBOPT_0x62
001385 940e 18f0 	CALL SUBOPT_0x2E
001387 cff0      	RJMP _0x326
                 _0x327:
                 ; 0000 0590 for(count2=0;count2<=batas;count2++){speed[count2]=espeed[count2];}
001388 e0e0      	LDI  R30,LOW(0)
001389 93e0 03bd 	STS  _count2,R30
                 _0x329:
00138b 940e 18e2 	CALL SUBOPT_0x2B
00138d f060      	BRLO _0x32A
00138e 940e 18ec 	CALL SUBOPT_0x2D
001390 50ed      	SUBI R30,LOW(-_speed)
001391 4ffd      	SBCI R31,HIGH(-_speed)
001392 010f      	MOVW R0,R30
001393 940e 18e8 	CALL SUBOPT_0x2C
001395 940e 1a3c 	CALL SUBOPT_0x63
001397 940e 18f0 	CALL SUBOPT_0x2E
001399 cff1      	RJMP _0x329
                 _0x32A:
                 ; 0000 0591 for(count2=0;count2<=batas;count2++){speed1[count2]=espeed1[count2];}
00139a e0e0      	LDI  R30,LOW(0)
00139b 93e0 03bd 	STS  _count2,R30
                 _0x32C:
00139d 940e 18e2 	CALL SUBOPT_0x2B
00139f f060      	BRLO _0x32D
0013a0 940e 18ec 	CALL SUBOPT_0x2D
0013a2 5ae8      	SUBI R30,LOW(-_speed1)
0013a3 4ffc      	SBCI R31,HIGH(-_speed1)
0013a4 010f      	MOVW R0,R30
0013a5 940e 18e8 	CALL SUBOPT_0x2C
0013a7 940e 1a43 	CALL SUBOPT_0x64
0013a9 940e 18f0 	CALL SUBOPT_0x2E
0013ab cff1      	RJMP _0x32C
                 _0x32D:
                 ; 0000 0592 for(count2=0;count2<=batas;count2++){timer[count2]=etimer[count2];}
0013ac e0e0      	LDI  R30,LOW(0)
0013ad 93e0 03bd 	STS  _count2,R30
                 _0x32F:
0013af 940e 18e2 	CALL SUBOPT_0x2B
0013b1 f060      	BRLO _0x330
0013b2 940e 18ec 	CALL SUBOPT_0x2D
0013b4 57e2      	SUBI R30,LOW(-_timer)
0013b5 4ffd      	SBCI R31,HIGH(-_timer)
0013b6 010f      	MOVW R0,R30
0013b7 940e 18e8 	CALL SUBOPT_0x2C
0013b9 940e 1a4a 	CALL SUBOPT_0x65
0013bb 940e 18f0 	CALL SUBOPT_0x2E
0013bd cff1      	RJMP _0x32F
                 _0x330:
                 ; 0000 0593 for(count2=0;count2<=batas;count2++){time[count2]=0;}
0013be e0e0      	LDI  R30,LOW(0)
0013bf 93e0 03bd 	STS  _count2,R30
                 _0x332:
0013c1 940e 18e2 	CALL SUBOPT_0x2B
0013c3 f048      	BRLO _0x333
0013c4 940e 18ec 	CALL SUBOPT_0x2D
0013c6 54e1      	SUBI R30,LOW(-_time)
0013c7 4ffc      	SBCI R31,HIGH(-_time)
0013c8 e0a0      	LDI  R26,LOW(0)
0013c9 83a0      	STD  Z+0,R26
0013ca 940e 18f0 	CALL SUBOPT_0x2E
0013cc cff4      	RJMP _0x332
                 _0x333:
                 ; 0000 0594 for(adc=0;adc<16;adc++){sensitive[adc]=esensitive[adc];}
0013cd e0e0      	LDI  R30,LOW(0)
0013ce 93e0 0594 	STS  _adc,R30
                 _0x335:
0013d0 91a0 0594 	LDS  R26,_adc
0013d2 31a0      	CPI  R26,LOW(0x10)
0013d3 f460      	BRSH _0x336
0013d4 940e 197f 	CALL SUBOPT_0x45
0013d6 010f      	MOVW R0,R30
0013d7 940e 1a13 	CALL SUBOPT_0x5D
0013d9 940e 1af4 	CALL __EEPROMRDB
0013db 01d0      	MOVW R26,R0
0013dc 93ec      	ST   X,R30
0013dd 940e 199f 	CALL SUBOPT_0x4B
0013df cff0      	RJMP _0x335
                 _0x336:
                 ; 0000 0595 mode=emode;
0013e0 e9a7      	LDI  R26,LOW(_emode)
0013e1 e0b2      	LDI  R27,HIGH(_emode)
0013e2 940e 1af4 	CALL __EEPROMRDB
0013e4 93e0 0451 	STS  _mode,R30
                 ; 0000 0596 modekanan=emodekanan;
0013e6 e9a8      	LDI  R26,LOW(_emodekanan)
0013e7 e0b2      	LDI  R27,HIGH(_emodekanan)
0013e8 940e 1af4 	CALL __EEPROMRDB
0013ea 93e0 0584 	STS  _modekanan,R30
                 ; 0000 0597 encomp=eencomp;
0013ec e9a6      	LDI  R26,LOW(_eencomp)
0013ed e0b2      	LDI  R27,HIGH(_eencomp)
0013ee 940e 1a51 	CALL SUBOPT_0x66
0013f0 940e 1976 	CALL SUBOPT_0x43
                 ; 0000 0598 pulsa=epulsa;
0013f2 e9a9      	LDI  R26,LOW(_epulsa)
0013f3 e0b2      	LDI  R27,HIGH(_epulsa)
0013f4 940e 1af4 	CALL __EEPROMRDB
0013f6 93e0 028c 	STS  _pulsa,R30
                 ; 0000 0599 start=0;
0013f8 e0e0      	LDI  R30,LOW(0)
0013f9 93e0 03be 	STS  _start,R30
                 ; 0000 059A aktif=1;
0013fb 9468      	SET
0013fc f820      	BLD  R2,0
                 ; 0000 059B cacah=0;
0013fd 93e0 0424 	STS  _cacah,R30
                 ; 0000 059C lc=elc;
0013ff e9ad      	LDI  R26,LOW(_elc)
001400 e0b2      	LDI  R27,HIGH(_elc)
001401 940e 1af4 	CALL __EEPROMRDB
001403 2ece      	MOV  R12,R30
001404 24dd      	CLR  R13
                 ; 0000 059D lc1=elc1;
001405 e9ae      	LDI  R26,LOW(_elc1)
001406 e0b2      	LDI  R27,HIGH(_elc1)
001407 940e 1a51 	CALL SUBOPT_0x66
001409 940e 1962 	CALL SUBOPT_0x3F
                 ; 0000 059E vc=evc;
00140b e9af      	LDI  R26,LOW(_evc)
00140c e0b2      	LDI  R27,HIGH(_evc)
00140d 940e 1a51 	CALL SUBOPT_0x66
00140f 93e0 0279 	STS  _vc,R30
001411 93f0 027a 	STS  _vc+1,R31
                 ; 0000 059F max1=emax1;
001413 eaa0      	LDI  R26,LOW(_emax1)
001414 e0b2      	LDI  R27,HIGH(_emax1)
001415 940e 1af4 	CALL __EEPROMRDB
001417 2e8e      	MOV  R8,R30
001418 2499      	CLR  R9
                 ; 0000 05A0 kp=ekp;
001419 e9aa      	LDI  R26,LOW(_ekp)
00141a e0b2      	LDI  R27,HIGH(_ekp)
00141b 940e 1af4 	CALL __EEPROMRDB
00141d 93e0 0289 	STS  _kp,R30
                 ; 0000 05A1 ki=eki;
00141f e9ac      	LDI  R26,LOW(_eki)
001420 e0b2      	LDI  R27,HIGH(_eki)
001421 940e 1af4 	CALL __EEPROMRDB
001423 93e0 028b 	STS  _ki,R30
                 ; 0000 05A2 kd=ekd;
001425 e9ab      	LDI  R26,LOW(_ekd)
001426 e0b2      	LDI  R27,HIGH(_ekd)
001427 940e 1af4 	CALL __EEPROMRDB
001429 93e0 028a 	STS  _kd,R30
                 ; 0000 05A3 SP=0;
00142b e0e0      	LDI  R30,LOW(0)
00142c 93e0 0450 	STS  _SP,R30
                 ; 0000 05A4 PV = 0;
00142e 93e0 027d 	STS  _PV,R30
001430 93e0 027e 	STS  _PV+1,R30
                 ; 0000 05A5 lasterror = 0;
001432 93e0 0281 	STS  _lasterror,R30
001434 93e0 0282 	STS  _lasterror+1,R30
                 ; 0000 05A6 error = 0;
001436 940e 19de 	CALL SUBOPT_0x54
                 ; 0000 05A7 led=1;
001438 9a97      	SBI  0x12,7
                 ; 0000 05A8 if (!s1){goto exit3;}
001439 9b98      	SBIS 0x13,0
00143a c001      	RJMP _0x33A
                 ; 0000 05A9 goto exit;
00143b c00a      	RJMP _0x2F6
                 ; 0000 05AA exit3:
                 _0x33A:
                 ; 0000 05AB lcd_clear();
00143c 940e 173d 	CALL _lcd_clear
                 ; 0000 05AC L=0;
00143e 98af      	CBI  0x15,7
                 ; 0000 05AD R=0;
00143f 98ae      	CBI  0x15,6
                 ; 0000 05AE aktif=1;
001440 9468      	SET
001441 f820      	BLD  R2,0
                 ; 0000 05AF setting();
001442 940e 08b7 	CALL _setting
                 ; 0000 05B0 led=1;
001444 9a97      	SBI  0x12,7
                 ; 0000 05B1 
                 ; 0000 05B2 exit4:
                 _0x341:
                 ; 0000 05B3 pilihStart();
001445 dd39      	RCALL _pilihStart
                 ; 0000 05B4 
                 ; 0000 05B5 exit:
                 _0x2F6:
                 ; 0000 05B6 lcd_clear();
001446 940e 173d 	CALL _lcd_clear
                 ; 0000 05B7 
                 ; 0000 05B8 while (1) {
                 _0x342:
                 ; 0000 05B9 lmp=1;
001448 9ac3      	SBI  0x18,3
                 ; 0000 05BA scansensor();
001449 940e 0bec 	CALL _scansensor
                 ; 0000 05BB 
                 ; 0000 05BC if(!s3){p_start=p_start+1;delay_ms(200);}
00144b 999b      	SBIC 0x13,3
00144c c004      	RJMP _0x347
                +
00144d 5f0f     +SUBI R16 , LOW ( - 1 )
00144e 4f1f     +SBCI R17 , HIGH ( - 1 )
                 	__ADDWRN 16,17,1
00144f 940e 1a05 	CALL SUBOPT_0x59
                 ; 0000 05BD if(p_start==2){p_start=0;}
                 _0x347:
001451 940e 18a9 	CALL SUBOPT_0x21
001453 f411      	BRNE _0x348
                +
001454 e000     +LDI R16 , LOW ( 0 )
001455 e010     +LDI R17 , HIGH ( 0 )
                 	__GETWRN 16,17,0
                 ; 0000 05BE 
                 ; 0000 05BF         if(p_start==0){
                 _0x348:
001456 2e00      	MOV  R0,R16
001457 2a01      	OR   R0,R17
001458 f459      	BRNE _0x349
                 ; 0000 05C0             lcd_gotoxy(0,1);
001459 940e 185f 	CALL SUBOPT_0x13
                 ; 0000 05C1             lcd_putsf(".Start=A");
                +
00145b ede8     +LDI R30 , LOW ( 2 * _0x0 + ( 878 ) )
00145c e0f3     +LDI R31 , HIGH ( 2 * _0x0 + ( 878 ) )
                 	__POINTW1FN _0x0,878
00145d 940e 17f2 	CALL SUBOPT_0x6
                 ; 0000 05C2             lcd_gotoxy(9,1);
00145f 940e 1a08 	CALL SUBOPT_0x5A
                 ; 0000 05C3             lcd_putsf(" CP=1");
001461 940e 1a0b 	CALL SUBOPT_0x5B
                 ; 0000 05C4             goto exit4;
001463 cfe1      	RJMP _0x341
                 ; 0000 05C5 
                 ; 0000 05C6         }
                 ; 0000 05C7 
                 ; 0000 05C8         if(p_start==1){
                 _0x349:
001464 940e 18a1 	CALL SUBOPT_0x1F
001466 f461      	BRNE _0x34A
                 ; 0000 05C9             lcd_gotoxy(0,1);
001467 940e 185f 	CALL SUBOPT_0x13
                 ; 0000 05CA             lcd_putsf(" Start=A");
                +
001469 e7e5     +LDI R30 , LOW ( 2 * _0x0 + ( 1035 ) )
00146a e0f4     +LDI R31 , HIGH ( 2 * _0x0 + ( 1035 ) )
                 	__POINTW1FN _0x0,1035
00146b 940e 17f2 	CALL SUBOPT_0x6
                 ; 0000 05CB             lcd_gotoxy(9,1);
00146d 940e 1a08 	CALL SUBOPT_0x5A
                 ; 0000 05CC             lcd_putsf(".CP=1");
                +
00146f e7ee     +LDI R30 , LOW ( 2 * _0x0 + ( 1044 ) )
001470 e0f4     +LDI R31 , HIGH ( 2 * _0x0 + ( 1044 ) )
                 	__POINTW1FN _0x0,1044
001471 940e 17f2 	CALL SUBOPT_0x6
                 ; 0000 05CD 
                 ; 0000 05CE         }
                 ; 0000 05CF 
                 ; 0000 05D0 
                 ; 0000 05D1 
                 ; 0000 05D2 
                 ; 0000 05D3 
                 ; 0000 05D4 //sprintf(buff,"[%d-%d] SCAN    ",sen,sam);
                 ; 0000 05D5 //lcd_puts(buff);
                 ; 0000 05D6 //if(pass>=0){lcd_putsf("+");}
                 ; 0000 05D7 //if(pass<=0){lcd_putsf("-");}
                 ; 0000 05D8 if (!s1)goto exit2; //masuk ke menu setting
                 _0x34A:
001473 9b98      	SBIS 0x13,0
001474 ceb4      	RJMP _0x316
                 ; 0000 05D9 //if (!s4||!s6)break;
                 ; 0000 05DA }
001475 cfd2      	RJMP _0x342
                 ; 0000 05DB lcd_clear();
                 ; 0000 05DC if (mode==1){delay_ms(500);}
                 ; 0000 05DD L=0;
                 ; 0000 05DE R=0;
                 ; 0000 05DF 
                 ; 0000 05E0 //-------------data dari eeprom di copy ke ram--------//
                 ; 0000 05E1 for(count2=1;count2<=batas;count2++){cut[count2]=ecut[count2];}
                 _0x352:
001476 940e 18e2 	CALL SUBOPT_0x2B
001478 f060      	BRLO _0x353
001479 940e 18ec 	CALL SUBOPT_0x2D
00147b 5aee      	SUBI R30,LOW(-_cut)
00147c 4ffb      	SBCI R31,HIGH(-_cut)
00147d 010f      	MOVW R0,R30
00147e 940e 18e8 	CALL SUBOPT_0x2C
001480 940e 1a19 	CALL SUBOPT_0x5E
001482 940e 18f0 	CALL SUBOPT_0x2E
001484 cff1      	RJMP _0x352
                 _0x353:
                 ; 0000 05E2 for(count2=1;count2<=batas;count2++){cut1[count2]=ecut1[count2];}
001485 e0e1      	LDI  R30,LOW(1)
001486 93e0 03bd 	STS  _count2,R30
                 _0x355:
001488 940e 18e2 	CALL SUBOPT_0x2B
00148a f060      	BRLO _0x356
00148b 940e 18ec 	CALL SUBOPT_0x2D
00148d 54e9      	SUBI R30,LOW(-_cut1)
00148e 4ffb      	SBCI R31,HIGH(-_cut1)
00148f 010f      	MOVW R0,R30
001490 940e 18e8 	CALL SUBOPT_0x2C
001492 940e 1a20 	CALL SUBOPT_0x5F
001494 940e 18f0 	CALL SUBOPT_0x2E
001496 cff1      	RJMP _0x355
                 _0x356:
                 ; 0000 05E3 for(count2=1;count2<=batas;count2++){del[count2]=edel[count2];}
001497 e0e1      	LDI  R30,LOW(1)
001498 93e0 03bd 	STS  _count2,R30
                 _0x358:
00149a 940e 18e2 	CALL SUBOPT_0x2B
00149c f060      	BRLO _0x359
00149d 940e 18ec 	CALL SUBOPT_0x2D
00149f 5ee2      	SUBI R30,LOW(-_del)
0014a0 4ffa      	SBCI R31,HIGH(-_del)
0014a1 010f      	MOVW R0,R30
0014a2 940e 18e8 	CALL SUBOPT_0x2C
0014a4 940e 1a27 	CALL SUBOPT_0x60
0014a6 940e 18f0 	CALL SUBOPT_0x2E
0014a8 cff1      	RJMP _0x358
                 _0x359:
                 ; 0000 05E4 for(count2=0;count2<=20;count2++){read[count2]=eread[count2];}
0014a9 e0e0      	LDI  R30,LOW(0)
0014aa 93e0 03bd 	STS  _count2,R30
                 _0x35B:
0014ac 91a0 03bd 	LDS  R26,_count2
0014ae 31a5      	CPI  R26,LOW(0x15)
0014af f460      	BRSH _0x35C
0014b0 940e 18ec 	CALL SUBOPT_0x2D
0014b2 5ce5      	SUBI R30,LOW(-_read)
0014b3 4ffb      	SBCI R31,HIGH(-_read)
0014b4 010f      	MOVW R0,R30
0014b5 940e 18e8 	CALL SUBOPT_0x2C
0014b7 940e 1a2e 	CALL SUBOPT_0x61
0014b9 940e 18f0 	CALL SUBOPT_0x2E
0014bb cff0      	RJMP _0x35B
                 _0x35C:
                 ; 0000 05E5 for(count2=0;count2<=20;count2++){plan[count2]=eplan[count2];}
0014bc e0e0      	LDI  R30,LOW(0)
0014bd 93e0 03bd 	STS  _count2,R30
                 _0x35E:
0014bf 91a0 03bd 	LDS  R26,_count2
0014c1 31a5      	CPI  R26,LOW(0x15)
0014c2 f460      	BRSH _0x35F
0014c3 940e 18ec 	CALL SUBOPT_0x2D
0014c5 5dea      	SUBI R30,LOW(-_plan)
0014c6 4ffb      	SBCI R31,HIGH(-_plan)
0014c7 010f      	MOVW R0,R30
0014c8 940e 18e8 	CALL SUBOPT_0x2C
0014ca 940e 1a35 	CALL SUBOPT_0x62
0014cc 940e 18f0 	CALL SUBOPT_0x2E
0014ce cff0      	RJMP _0x35E
                 _0x35F:
                 ; 0000 05E6 for(count2=0;count2<=batas;count2++){speed[count2]=espeed[count2];}
0014cf e0e0      	LDI  R30,LOW(0)
0014d0 93e0 03bd 	STS  _count2,R30
                 _0x361:
0014d2 940e 18e2 	CALL SUBOPT_0x2B
0014d4 f060      	BRLO _0x362
0014d5 940e 18ec 	CALL SUBOPT_0x2D
0014d7 50ed      	SUBI R30,LOW(-_speed)
0014d8 4ffd      	SBCI R31,HIGH(-_speed)
0014d9 010f      	MOVW R0,R30
0014da 940e 18e8 	CALL SUBOPT_0x2C
0014dc 940e 1a3c 	CALL SUBOPT_0x63
0014de 940e 18f0 	CALL SUBOPT_0x2E
0014e0 cff1      	RJMP _0x361
                 _0x362:
                 ; 0000 05E7 for(count2=0;count2<=batas;count2++){speed1[count2]=espeed1[count2];}
0014e1 e0e0      	LDI  R30,LOW(0)
0014e2 93e0 03bd 	STS  _count2,R30
                 _0x364:
0014e4 940e 18e2 	CALL SUBOPT_0x2B
0014e6 f060      	BRLO _0x365
0014e7 940e 18ec 	CALL SUBOPT_0x2D
0014e9 5ae8      	SUBI R30,LOW(-_speed1)
0014ea 4ffc      	SBCI R31,HIGH(-_speed1)
0014eb 010f      	MOVW R0,R30
0014ec 940e 18e8 	CALL SUBOPT_0x2C
0014ee 940e 1a43 	CALL SUBOPT_0x64
0014f0 940e 18f0 	CALL SUBOPT_0x2E
0014f2 cff1      	RJMP _0x364
                 _0x365:
                 ; 0000 05E8 for(count2=0;count2<=batas;count2++){timer[count2]=etimer[count2];}
0014f3 e0e0      	LDI  R30,LOW(0)
0014f4 93e0 03bd 	STS  _count2,R30
                 _0x367:
0014f6 940e 18e2 	CALL SUBOPT_0x2B
0014f8 f060      	BRLO _0x368
0014f9 940e 18ec 	CALL SUBOPT_0x2D
0014fb 57e2      	SUBI R30,LOW(-_timer)
0014fc 4ffd      	SBCI R31,HIGH(-_timer)
0014fd 010f      	MOVW R0,R30
0014fe 940e 18e8 	CALL SUBOPT_0x2C
001500 940e 1a4a 	CALL SUBOPT_0x65
001502 940e 18f0 	CALL SUBOPT_0x2E
001504 cff1      	RJMP _0x367
                 _0x368:
                 ; 0000 05E9 for(count2=0;count2<=batas;count2++){time[count2]=0;}
001505 e0e0      	LDI  R30,LOW(0)
001506 93e0 03bd 	STS  _count2,R30
                 _0x36A:
001508 940e 18e2 	CALL SUBOPT_0x2B
00150a f048      	BRLO _0x36B
00150b 940e 18ec 	CALL SUBOPT_0x2D
00150d 54e1      	SUBI R30,LOW(-_time)
00150e 4ffc      	SBCI R31,HIGH(-_time)
00150f e0a0      	LDI  R26,LOW(0)
001510 83a0      	STD  Z+0,R26
001511 940e 18f0 	CALL SUBOPT_0x2E
001513 cff4      	RJMP _0x36A
                 _0x36B:
                 ; 0000 05EA for(adc=0;adc<16;adc++){sensitive[adc]=esensitive[adc];}
001514 e0e0      	LDI  R30,LOW(0)
001515 93e0 0594 	STS  _adc,R30
                 _0x36D:
001517 91a0 0594 	LDS  R26,_adc
001519 31a0      	CPI  R26,LOW(0x10)
00151a f460      	BRSH _0x36E
00151b 940e 197f 	CALL SUBOPT_0x45
00151d 010f      	MOVW R0,R30
00151e 940e 1a13 	CALL SUBOPT_0x5D
001520 940e 1af4 	CALL __EEPROMRDB
001522 01d0      	MOVW R26,R0
001523 93ec      	ST   X,R30
001524 940e 199f 	CALL SUBOPT_0x4B
001526 cff0      	RJMP _0x36D
                 _0x36E:
                 ; 0000 05EB if(modekanan==1){for(count2=0;count2<batas;count2++){cut[count2]=cut1[count2];}}
001527 91a0 0584 	LDS  R26,_modekanan
001529 30a1      	CPI  R26,LOW(0x1)
00152a f4b1      	BRNE _0x36F
00152b e0e0      	LDI  R30,LOW(0)
00152c 93e0 03bd 	STS  _count2,R30
                 _0x371:
00152e 91e0 028d 	LDS  R30,_batas
001530 91a0 03bd 	LDS  R26,_count2
001532 17ae      	CP   R26,R30
001533 f468      	BRSH _0x372
001534 940e 18e8 	CALL SUBOPT_0x2C
001536 5aae      	SUBI R26,LOW(-_cut)
001537 4fbb      	SBCI R27,HIGH(-_cut)
001538 940e 18ec 	CALL SUBOPT_0x2D
00153a 54e9      	SUBI R30,LOW(-_cut1)
00153b 4ffb      	SBCI R31,HIGH(-_cut1)
00153c 81e0      	LD   R30,Z
00153d 93ec      	ST   X,R30
00153e 940e 18f0 	CALL SUBOPT_0x2E
001540 cfed      	RJMP _0x371
                 _0x372:
                 ; 0000 05EC if (mode==1)darurat();
                 _0x36F:
001541 91a0 0451 	LDS  R26,_mode
001543 30a1      	CPI  R26,LOW(0x1)
001544 f411      	BRNE _0x373
001545 940e 085d 	CALL _darurat
                 ; 0000 05ED lmp=0;
                 _0x373:
001547 98c3      	CBI  0x18,3
                 ; 0000 05EE pwm_on();
001548 940e 0382 	CALL _pwm_on
                 ; 0000 05EF aktif=1;
00154a 9468      	SET
00154b f820      	BLD  R2,0
                 ; 0000 05F0 #asm("sei")
00154c 9478      	sei
                 ; 0000 05F1 while (1)
                 _0x376:
                 ; 0000 05F2       {
                 ; 0000 05F3       // Place your code here
                 ; 0000 05F4       program();
00154d d8a0      	RCALL _program
                 ; 0000 05F5       scansensor();
00154e 940e 0bec 	CALL _scansensor
                 ; 0000 05F6       if (!s1){pwm_off();stop();goto exit;}
001550 9998      	SBIC 0x13,0
001551 c003      	RJMP _0x379
001552 940e 1898 	CALL SUBOPT_0x1D
001554 cef1      	RJMP _0x2F6
                 ; 0000 05F7       };
                 _0x379:
001555 cff7      	RJMP _0x376
                 ; 0000 05F8 
                 ; 0000 05F9 }
                 _0x37A:
001556 cfff      	RJMP _0x37A
                 
                 	.DSEG
                 _0x2EB:
000260           	.BYTE 0x19
                 	#ifndef __SLEEP_DEFINED__
                 	#endif
                 
                 	.CSEG
                 _put_buff_G100:
001557 931a      	ST   -Y,R17
001558 930a      	ST   -Y,R16
001559 81aa      	LDD  R26,Y+2
00155a 81bb      	LDD  R27,Y+2+1
00155b 9612      	ADIW R26,2
00155c 940e 1ae0 	CALL __GETW1P
00155e 9730      	SBIW R30,0
00155f f129      	BREQ _0x2000010
001560 81aa      	LDD  R26,Y+2
001561 81bb      	LDD  R27,Y+2+1
001562 9614      	ADIW R26,4
001563 940e 1ae0 	CALL __GETW1P
001565 018f      	MOVW R16,R30
001566 9730      	SBIW R30,0
001567 f061      	BREQ _0x2000012
                +
001568 3002     +CPI R16 , LOW ( 2 )
001569 e0e0     +LDI R30 , HIGH ( 2 )
00156a 071e     +CPC R17 , R30
                 	__CPWRN 16,17,2
00156b f0c0      	BRLO _0x2000013
00156c 01f8      	MOVW R30,R16
00156d 9731      	SBIW R30,1
00156e 018f      	MOVW R16,R30
                +
00156f 81aa     +LDD R26 , Y + 2
001570 81bb     +LDD R27 , Y + 2 + 1
001571 9614     +ADIW R26 , 4
001572 93ed     +ST X + , R30
001573 93fc     +ST X , R31
                 	__PUTW1SNS 2,4
                 _0x2000012:
001574 81aa      	LDD  R26,Y+2
001575 81bb      	LDD  R27,Y+2+1
001576 9612      	ADIW R26,2
001577 940e 19ff 	CALL SUBOPT_0x58
001579 9731      	SBIW R30,1
00157a 81ac      	LDD  R26,Y+4
00157b 83a0      	STD  Z+0,R26
00157c 81aa      	LDD  R26,Y+2
00157d 81bb      	LDD  R27,Y+2+1
00157e 940e 1ae0 	CALL __GETW1P
001580 23ff      	TST  R31
001581 f012      	BRMI _0x2000014
001582 940e 19ff 	CALL SUBOPT_0x58
                 _0x2000014:
                 _0x2000013:
001584 c006      	RJMP _0x2000015
                 _0x2000010:
001585 81aa      	LDD  R26,Y+2
001586 81bb      	LDD  R27,Y+2+1
001587 efef      	LDI  R30,LOW(65535)
001588 efff      	LDI  R31,HIGH(65535)
001589 93ed      	ST   X+,R30
00158a 93fc      	ST   X,R31
                 _0x2000015:
00158b 8119      	LDD  R17,Y+1
00158c 8108      	LDD  R16,Y+0
00158d 9625      	ADIW R28,5
00158e 9508      	RET
                 __print_G100:
00158f 9726      	SBIW R28,6
001590 940e 1b15 	CALL __SAVELOCR6
001592 e010      	LDI  R17,0
001593 85ac      	LDD  R26,Y+12
001594 85bd      	LDD  R27,Y+12+1
001595 e0e0      	LDI  R30,LOW(0)
001596 e0f0      	LDI  R31,HIGH(0)
001597 93ed      	ST   X+,R30
001598 93fc      	ST   X,R31
                 _0x2000016:
001599 89ea      	LDD  R30,Y+18
00159a 89fb      	LDD  R31,Y+18+1
00159b 9631      	ADIW R30,1
00159c 8bea      	STD  Y+18,R30
00159d 8bfb      	STD  Y+18+1,R31
00159e 9731      	SBIW R30,1
00159f 91e4      	LPM  R30,Z
0015a0 2f2e      	MOV  R18,R30
0015a1 30e0      	CPI  R30,0
0015a2 f411      	BRNE PC+3
0015a3 940c 16bc 	JMP _0x2000018
0015a5 2fe1      	MOV  R30,R17
0015a6 30e0      	CPI  R30,0
0015a7 f439      	BRNE _0x200001C
0015a8 3225      	CPI  R18,37
0015a9 f411      	BRNE _0x200001D
0015aa e011      	LDI  R17,LOW(1)
0015ab c002      	RJMP _0x200001E
                 _0x200001D:
0015ac 940e 1a55 	CALL SUBOPT_0x67
                 _0x200001E:
0015ae c10c      	RJMP _0x200001B
                 _0x200001C:
0015af 30e1      	CPI  R30,LOW(0x1)
0015b0 f4a9      	BRNE _0x200001F
0015b1 3225      	CPI  R18,37
0015b2 f419      	BRNE _0x2000020
0015b3 940e 1a55 	CALL SUBOPT_0x67
0015b5 c104      	RJMP _0x20000C9
                 _0x2000020:
0015b6 e012      	LDI  R17,LOW(2)
0015b7 e040      	LDI  R20,LOW(0)
0015b8 e000      	LDI  R16,LOW(0)
0015b9 322d      	CPI  R18,45
0015ba f411      	BRNE _0x2000021
0015bb e001      	LDI  R16,LOW(1)
0015bc c0fe      	RJMP _0x200001B
                 _0x2000021:
0015bd 322b      	CPI  R18,43
0015be f411      	BRNE _0x2000022
0015bf e24b      	LDI  R20,LOW(43)
0015c0 c0fa      	RJMP _0x200001B
                 _0x2000022:
0015c1 3220      	CPI  R18,32
0015c2 f411      	BRNE _0x2000023
0015c3 e240      	LDI  R20,LOW(32)
0015c4 c0f6      	RJMP _0x200001B
                 _0x2000023:
0015c5 c002      	RJMP _0x2000024
                 _0x200001F:
0015c6 30e2      	CPI  R30,LOW(0x2)
0015c7 f439      	BRNE _0x2000025
                 _0x2000024:
0015c8 e050      	LDI  R21,LOW(0)
0015c9 e013      	LDI  R17,LOW(3)
0015ca 3320      	CPI  R18,48
0015cb f411      	BRNE _0x2000026
0015cc 6800      	ORI  R16,LOW(128)
0015cd c0ed      	RJMP _0x200001B
                 _0x2000026:
0015ce c004      	RJMP _0x2000027
                 _0x2000025:
0015cf 30e3      	CPI  R30,LOW(0x3)
0015d0 f011      	BREQ PC+3
0015d1 940c 16bb 	JMP _0x200001B
                 _0x2000027:
0015d3 3320      	CPI  R18,48
0015d4 f010      	BRLO _0x200002A
0015d5 332a      	CPI  R18,58
0015d6 f008      	BRLO _0x200002B
                 _0x200002A:
0015d7 c007      	RJMP _0x2000029
                 _0x200002B:
0015d8 e0aa      	LDI  R26,LOW(10)
0015d9 9f5a      	MUL  R21,R26
0015da 2d50      	MOV  R21,R0
0015db 2fe2      	MOV  R30,R18
0015dc 53e0      	SUBI R30,LOW(48)
0015dd 0f5e      	ADD  R21,R30
0015de c0dc      	RJMP _0x200001B
                 _0x2000029:
0015df 2fe2      	MOV  R30,R18
0015e0 36e3      	CPI  R30,LOW(0x63)
0015e1 f449      	BRNE _0x200002F
0015e2 940e 1a5e 	CALL SUBOPT_0x68
0015e4 89e8      	LDD  R30,Y+16
0015e5 89f9      	LDD  R31,Y+16+1
0015e6 81a4      	LDD  R26,Z+4
0015e7 93aa      	ST   -Y,R26
0015e8 940e 1a64 	CALL SUBOPT_0x69
0015ea c0cf      	RJMP _0x2000030
                 _0x200002F:
0015eb 37e3      	CPI  R30,LOW(0x73)
0015ec f441      	BRNE _0x2000032
0015ed 940e 1a5e 	CALL SUBOPT_0x68
0015ef 940e 1a6c 	CALL SUBOPT_0x6A
0015f1 940e 17bf 	CALL _strlen
0015f3 2f1e      	MOV  R17,R30
0015f4 c00a      	RJMP _0x2000033
                 _0x2000032:
0015f5 37e0      	CPI  R30,LOW(0x70)
0015f6 f461      	BRNE _0x2000035
0015f7 940e 1a5e 	CALL SUBOPT_0x68
0015f9 940e 1a6c 	CALL SUBOPT_0x6A
0015fb 940e 17c9 	CALL _strlenf
0015fd 2f1e      	MOV  R17,R30
0015fe 6008      	ORI  R16,LOW(8)
                 _0x2000033:
0015ff 6002      	ORI  R16,LOW(2)
001600 770f      	ANDI R16,LOW(127)
001601 e030      	LDI  R19,LOW(0)
001602 c035      	RJMP _0x2000036
                 _0x2000035:
001603 36e4      	CPI  R30,LOW(0x64)
001604 f011      	BREQ _0x2000039
001605 36e9      	CPI  R30,LOW(0x69)
001606 f411      	BRNE _0x200003A
                 _0x2000039:
001607 6004      	ORI  R16,LOW(4)
001608 c002      	RJMP _0x200003B
                 _0x200003A:
001609 37e5      	CPI  R30,LOW(0x75)
00160a f431      	BRNE _0x200003C
                 _0x200003B:
00160b e5e4      	LDI  R30,LOW(_tbl10_G100*2)
00160c e0f0      	LDI  R31,HIGH(_tbl10_G100*2)
00160d 83ee      	STD  Y+6,R30
00160e 83ff      	STD  Y+6+1,R31
00160f e015      	LDI  R17,LOW(5)
001610 c00d      	RJMP _0x200003D
                 _0x200003C:
001611 35e8      	CPI  R30,LOW(0x58)
001612 f411      	BRNE _0x200003F
001613 6008      	ORI  R16,LOW(8)
001614 c004      	RJMP _0x2000040
                 _0x200003F:
001615 37e8      	CPI  R30,LOW(0x78)
001616 f011      	BREQ PC+3
001617 940c 16ba 	JMP _0x2000071
                 _0x2000040:
001619 e5ee      	LDI  R30,LOW(_tbl16_G100*2)
00161a e0f0      	LDI  R31,HIGH(_tbl16_G100*2)
00161b 83ee      	STD  Y+6,R30
00161c 83ff      	STD  Y+6+1,R31
00161d e014      	LDI  R17,LOW(4)
                 _0x200003D:
00161e ff02      	SBRS R16,2
00161f c014      	RJMP _0x2000042
001620 940e 1a5e 	CALL SUBOPT_0x68
001622 940e 1a76 	CALL SUBOPT_0x6B
001624 85ab      	LDD  R26,Y+11
001625 23aa      	TST  R26
001626 f43a      	BRPL _0x2000043
001627 85ea      	LDD  R30,Y+10
001628 85fb      	LDD  R31,Y+10+1
001629 940e 1aa4 	CALL __ANEGW1
00162b 87ea      	STD  Y+10,R30
00162c 87fb      	STD  Y+10+1,R31
00162d e24d      	LDI  R20,LOW(45)
                 _0x2000043:
00162e 3040      	CPI  R20,0
00162f f011      	BREQ _0x2000044
001630 5f1f      	SUBI R17,-LOW(1)
001631 c001      	RJMP _0x2000045
                 _0x2000044:
001632 7f0b      	ANDI R16,LOW(251)
                 _0x2000045:
001633 c004      	RJMP _0x2000046
                 _0x2000042:
001634 940e 1a5e 	CALL SUBOPT_0x68
001636 940e 1a76 	CALL SUBOPT_0x6B
                 _0x2000046:
                 _0x2000036:
001638 fd00      	SBRC R16,0
001639 c011      	RJMP _0x2000047
                 _0x2000048:
00163a 1715      	CP   R17,R21
00163b f478      	BRSH _0x200004A
00163c ff07      	SBRS R16,7
00163d c008      	RJMP _0x200004B
00163e ff02      	SBRS R16,2
00163f c004      	RJMP _0x200004C
001640 7f0b      	ANDI R16,LOW(251)
001641 2f24      	MOV  R18,R20
001642 5011      	SUBI R17,LOW(1)
001643 c001      	RJMP _0x200004D
                 _0x200004C:
001644 e320      	LDI  R18,LOW(48)
                 _0x200004D:
001645 c001      	RJMP _0x200004E
                 _0x200004B:
001646 e220      	LDI  R18,LOW(32)
                 _0x200004E:
001647 940e 1a55 	CALL SUBOPT_0x67
001649 5051      	SUBI R21,LOW(1)
00164a cfef      	RJMP _0x2000048
                 _0x200004A:
                 _0x2000047:
00164b 2f31      	MOV  R19,R17
00164c ff01      	SBRS R16,1
00164d c017      	RJMP _0x200004F
                 _0x2000050:
00164e 3030      	CPI  R19,0
00164f f0a1      	BREQ _0x2000052
001650 ff03      	SBRS R16,3
001651 c006      	RJMP _0x2000053
001652 81ee      	LDD  R30,Y+6
001653 81ff      	LDD  R31,Y+6+1
001654 9125      	LPM  R18,Z+
001655 83ee      	STD  Y+6,R30
001656 83ff      	STD  Y+6+1,R31
001657 c005      	RJMP _0x2000054
                 _0x2000053:
001658 81ae      	LDD  R26,Y+6
001659 81bf      	LDD  R27,Y+6+1
00165a 912d      	LD   R18,X+
00165b 83ae      	STD  Y+6,R26
00165c 83bf      	STD  Y+6+1,R27
                 _0x2000054:
00165d 940e 1a55 	CALL SUBOPT_0x67
00165f 3050      	CPI  R21,0
001660 f009      	BREQ _0x2000055
001661 5051      	SUBI R21,LOW(1)
                 _0x2000055:
001662 5031      	SUBI R19,LOW(1)
001663 cfea      	RJMP _0x2000050
                 _0x2000052:
001664 c04b      	RJMP _0x2000056
                 _0x200004F:
                 _0x2000058:
001665 e320      	LDI  R18,LOW(48)
001666 81ee      	LDD  R30,Y+6
001667 81ff      	LDD  R31,Y+6+1
001668 940e 1ae4 	CALL __GETW1PF
00166a 87e8      	STD  Y+8,R30
00166b 87f9      	STD  Y+8+1,R31
00166c 81ee      	LDD  R30,Y+6
00166d 81ff      	LDD  R31,Y+6+1
00166e 9632      	ADIW R30,2
00166f 83ee      	STD  Y+6,R30
001670 83ff      	STD  Y+6+1,R31
                 _0x200005A:
001671 85e8      	LDD  R30,Y+8
001672 85f9      	LDD  R31,Y+8+1
001673 85aa      	LDD  R26,Y+10
001674 85bb      	LDD  R27,Y+10+1
001675 17ae      	CP   R26,R30
001676 07bf      	CPC  R27,R31
001677 f050      	BRLO _0x200005C
001678 5f2f      	SUBI R18,-LOW(1)
001679 85a8      	LDD  R26,Y+8
00167a 85b9      	LDD  R27,Y+8+1
00167b 85ea      	LDD  R30,Y+10
00167c 85fb      	LDD  R31,Y+10+1
00167d 1bea      	SUB  R30,R26
00167e 0bfb      	SBC  R31,R27
00167f 87ea      	STD  Y+10,R30
001680 87fb      	STD  Y+10+1,R31
001681 cfef      	RJMP _0x200005A
                 _0x200005C:
001682 332a      	CPI  R18,58
001683 f028      	BRLO _0x200005D
001684 ff03      	SBRS R16,3
001685 c002      	RJMP _0x200005E
001686 5f29      	SUBI R18,-LOW(7)
001687 c001      	RJMP _0x200005F
                 _0x200005E:
001688 5d29      	SUBI R18,-LOW(39)
                 _0x200005F:
                 _0x200005D:
001689 fd04      	SBRC R16,4
00168a c01a      	RJMP _0x2000061
00168b 3321      	CPI  R18,49
00168c f420      	BRSH _0x2000063
00168d 85a8      	LDD  R26,Y+8
00168e 85b9      	LDD  R27,Y+8+1
00168f 9711      	SBIW R26,1
001690 f409      	BRNE _0x2000062
                 _0x2000063:
001691 c009      	RJMP _0x20000CA
                 _0x2000062:
001692 1753      	CP   R21,R19
001693 f010      	BRLO _0x2000067
001694 ff00      	SBRS R16,0
001695 c001      	RJMP _0x2000068
                 _0x2000067:
001696 c013      	RJMP _0x2000066
                 _0x2000068:
001697 e220      	LDI  R18,LOW(32)
001698 ff07      	SBRS R16,7
001699 c00b      	RJMP _0x2000069
00169a e320      	LDI  R18,LOW(48)
                 _0x20000CA:
00169b 6100      	ORI  R16,LOW(16)
00169c ff02      	SBRS R16,2
00169d c007      	RJMP _0x200006A
00169e 7f0b      	ANDI R16,LOW(251)
00169f 934a      	ST   -Y,R20
0016a0 940e 1a64 	CALL SUBOPT_0x69
0016a2 3050      	CPI  R21,0
0016a3 f009      	BREQ _0x200006B
0016a4 5051      	SUBI R21,LOW(1)
                 _0x200006B:
                 _0x200006A:
                 _0x2000069:
                 _0x2000061:
0016a5 940e 1a55 	CALL SUBOPT_0x67
0016a7 3050      	CPI  R21,0
0016a8 f009      	BREQ _0x200006C
0016a9 5051      	SUBI R21,LOW(1)
                 _0x200006C:
                 _0x2000066:
0016aa 5031      	SUBI R19,LOW(1)
0016ab 85a8      	LDD  R26,Y+8
0016ac 85b9      	LDD  R27,Y+8+1
0016ad 9712      	SBIW R26,2
0016ae f008      	BRLO _0x2000059
0016af cfb5      	RJMP _0x2000058
                 _0x2000059:
                 _0x2000056:
0016b0 ff00      	SBRS R16,0
0016b1 c008      	RJMP _0x200006D
                 _0x200006E:
0016b2 3050      	CPI  R21,0
0016b3 f031      	BREQ _0x2000070
0016b4 5051      	SUBI R21,LOW(1)
0016b5 e2e0      	LDI  R30,LOW(32)
0016b6 93ea      	ST   -Y,R30
0016b7 940e 1a64 	CALL SUBOPT_0x69
0016b9 cff8      	RJMP _0x200006E
                 _0x2000070:
                 _0x200006D:
                 _0x2000071:
                 _0x2000030:
                 _0x20000C9:
0016ba e010      	LDI  R17,LOW(0)
                 _0x200001B:
0016bb cedd      	RJMP _0x2000016
                 _0x2000018:
0016bc 85ac      	LDD  R26,Y+12
0016bd 85bd      	LDD  R27,Y+12+1
0016be 940e 1ae0 	CALL __GETW1P
0016c0 940e 1b1c 	CALL __LOADLOCR6
0016c2 9664      	ADIW R28,20
0016c3 9508      	RET
                 _sprintf:
0016c4 92ff      	PUSH R15
0016c5 2ef8      	MOV  R15,R24
0016c6 9726      	SBIW R28,6
0016c7 940e 1b17 	CALL __SAVELOCR4
0016c9 940e 1a7e 	CALL SUBOPT_0x6C
0016cb 9730      	SBIW R30,0
0016cc f419      	BRNE _0x2000072
0016cd efef      	LDI  R30,LOW(65535)
0016ce efff      	LDI  R31,HIGH(65535)
0016cf c025      	RJMP _0x2080003
                 _0x2000072:
0016d0 01de      	MOVW R26,R28
0016d1 9616      	ADIW R26,6
0016d2 940e 1aa0 	CALL __ADDW2R15
0016d4 018d      	MOVW R16,R26
0016d5 940e 1a7e 	CALL SUBOPT_0x6C
0016d7 83ee      	STD  Y+6,R30
0016d8 83ff      	STD  Y+6+1,R31
0016d9 e0e0      	LDI  R30,LOW(0)
0016da 87e8      	STD  Y+8,R30
0016db 87e9      	STD  Y+8+1,R30
0016dc 01de      	MOVW R26,R28
0016dd 961a      	ADIW R26,10
0016de 940e 1aa0 	CALL __ADDW2R15
0016e0 940e 1ae0 	CALL __GETW1P
0016e2 93fa      	ST   -Y,R31
0016e3 93ea      	ST   -Y,R30
0016e4 931a      	ST   -Y,R17
0016e5 930a      	ST   -Y,R16
0016e6 e5e7      	LDI  R30,LOW(_put_buff_G100)
0016e7 e1f5      	LDI  R31,HIGH(_put_buff_G100)
0016e8 93fa      	ST   -Y,R31
0016e9 93ea      	ST   -Y,R30
0016ea 01fe      	MOVW R30,R28
0016eb 963a      	ADIW R30,10
0016ec 93fa      	ST   -Y,R31
0016ed 93ea      	ST   -Y,R30
0016ee dea0      	RCALL __print_G100
0016ef 019f      	MOVW R18,R30
0016f0 81ae      	LDD  R26,Y+6
0016f1 81bf      	LDD  R27,Y+6+1
0016f2 e0e0      	LDI  R30,LOW(0)
0016f3 93ec      	ST   X,R30
0016f4 01f9      	MOVW R30,R18
                 _0x2080003:
0016f5 940e 1b1e 	CALL __LOADLOCR4
0016f7 962a      	ADIW R28,10
0016f8 90ff      	POP  R15
0016f9 9508      	RET
                 	#ifndef __SLEEP_DEFINED__
                 	#endif
                 
                 	.DSEG
                 
                 	.CSEG
                 __lcd_write_nibble_G101:
0016fa 81e8      	LD   R30,Y
0016fb 71e0      	ANDI R30,LOW(0x10)
0016fc f011      	BREQ _0x2020004
0016fd 9ac4      	SBI  0x18,4
0016fe c001      	RJMP _0x2020005
                 _0x2020004:
0016ff 98c4      	CBI  0x18,4
                 _0x2020005:
001700 81e8      	LD   R30,Y
001701 72e0      	ANDI R30,LOW(0x20)
001702 f011      	BREQ _0x2020006
001703 9ac5      	SBI  0x18,5
001704 c001      	RJMP _0x2020007
                 _0x2020006:
001705 98c5      	CBI  0x18,5
                 _0x2020007:
001706 81e8      	LD   R30,Y
001707 74e0      	ANDI R30,LOW(0x40)
001708 f011      	BREQ _0x2020008
001709 9ac6      	SBI  0x18,6
00170a c001      	RJMP _0x2020009
                 _0x2020008:
00170b 98c6      	CBI  0x18,6
                 _0x2020009:
00170c 81e8      	LD   R30,Y
00170d 78e0      	ANDI R30,LOW(0x80)
00170e f011      	BREQ _0x202000A
00170f 9ac7      	SBI  0x18,7
001710 c001      	RJMP _0x202000B
                 _0x202000A:
001711 98c7      	CBI  0x18,7
                 _0x202000B:
                +
001712 e08b     +LDI R24 , LOW ( 11 )
                +__DELAY_USB_LOOP :
001713 958a     +DEC R24
001714 f7f1     +BRNE __DELAY_USB_LOOP
                 	__DELAY_USB 11
001715 9ac2      	SBI  0x18,2
                +
001716 e18b     +LDI R24 , LOW ( 27 )
                +__DELAY_USB_LOOP :
001717 958a     +DEC R24
001718 f7f1     +BRNE __DELAY_USB_LOOP
                 	__DELAY_USB 27
001719 98c2      	CBI  0x18,2
                +
00171a e18b     +LDI R24 , LOW ( 27 )
                +__DELAY_USB_LOOP :
00171b 958a     +DEC R24
00171c f7f1     +BRNE __DELAY_USB_LOOP
                 	__DELAY_USB 27
00171d c09f      	RJMP _0x2080001
                 __lcd_write_data:
00171e 81e8      	LD   R30,Y
00171f 93ea      	ST   -Y,R30
001720 dfd9      	RCALL __lcd_write_nibble_G101
001721 81e8          ld    r30,y
001722 95e2          swap  r30
001723 83e8          st    y,r30
001724 81e8      	LD   R30,Y
001725 93ea      	ST   -Y,R30
001726 dfd3      	RCALL __lcd_write_nibble_G101
                +
001727 ec88     +LDI R24 , LOW ( 200 )
001728 e090     +LDI R25 , HIGH ( 200 )
                +__DELAY_USW_LOOP :
001729 9701     +SBIW R24 , 1
00172a f7f1     +BRNE __DELAY_USW_LOOP
                 	__DELAY_USW 200
00172b c091      	RJMP _0x2080001
                 _lcd_gotoxy:
00172c 81e8      	LD   R30,Y
00172d e0f0      	LDI  R31,0
00172e 51eb      	SUBI R30,LOW(-__base_y_G101)
00172f 4ffa      	SBCI R31,HIGH(-__base_y_G101)
001730 81e0      	LD   R30,Z
001731 81a9      	LDD  R26,Y+1
001732 0fea      	ADD  R30,R26
001733 93ea      	ST   -Y,R30
001734 dfe9      	RCALL __lcd_write_data
001735 81e9      	LDD  R30,Y+1
001736 93e0 05e9 	STS  __lcd_x,R30
001738 81e8      	LD   R30,Y
001739 93e0 05ea 	STS  __lcd_y,R30
00173b 9622      	ADIW R28,2
00173c 9508      	RET
                 _lcd_clear:
00173d e0e2      	LDI  R30,LOW(2)
00173e 940e 1a85 	CALL SUBOPT_0x6D
001740 e0ec      	LDI  R30,LOW(12)
001741 93ea      	ST   -Y,R30
001742 dfdb      	RCALL __lcd_write_data
001743 e0e1      	LDI  R30,LOW(1)
001744 940e 1a85 	CALL SUBOPT_0x6D
001746 e0e0      	LDI  R30,LOW(0)
001747 93e0 05ea 	STS  __lcd_y,R30
001749 93e0 05e9 	STS  __lcd_x,R30
00174b 9508      	RET
                 _lcd_putchar:
00174c 81a8      	LD   R26,Y
00174d 30aa      	CPI  R26,LOW(0xA)
00174e f031      	BREQ _0x2020011
00174f 91e0 05eb 	LDS  R30,__lcd_maxx
001751 91a0 05e9 	LDS  R26,__lcd_x
001753 17ae      	CP   R26,R30
001754 f068      	BRLO _0x2020010
                 _0x2020011:
001755 e0e0      	LDI  R30,LOW(0)
001756 93ea      	ST   -Y,R30
001757 91e0 05ea 	LDS  R30,__lcd_y
001759 5fef      	SUBI R30,-LOW(1)
00175a 93e0 05ea 	STS  __lcd_y,R30
00175c 93ea      	ST   -Y,R30
00175d dfce      	RCALL _lcd_gotoxy
00175e 81a8      	LD   R26,Y
00175f 30aa      	CPI  R26,LOW(0xA)
001760 f409      	BRNE _0x2020013
001761 c05b      	RJMP _0x2080001
                 _0x2020013:
                 _0x2020010:
001762 91e0 05e9 	LDS  R30,__lcd_x
001764 5fef      	SUBI R30,-LOW(1)
001765 93e0 05e9 	STS  __lcd_x,R30
001767 9ac0      	SBI  0x18,0
001768 81e8      	LD   R30,Y
001769 93ea      	ST   -Y,R30
00176a dfb3      	RCALL __lcd_write_data
00176b 98c0      	CBI  0x18,0
00176c c050      	RJMP _0x2080001
                 _lcd_puts:
00176d 931a      	ST   -Y,R17
                 _0x2020014:
00176e 81a9      	LDD  R26,Y+1
00176f 81ba      	LDD  R27,Y+1+1
001770 91ed      	LD   R30,X+
001771 83a9      	STD  Y+1,R26
001772 83ba      	STD  Y+1+1,R27
001773 2f1e      	MOV  R17,R30
001774 30e0      	CPI  R30,0
001775 f019      	BREQ _0x2020016
001776 931a      	ST   -Y,R17
001777 dfd4      	RCALL _lcd_putchar
001778 cff5      	RJMP _0x2020014
                 _0x2020016:
001779 c00e      	RJMP _0x2080002
                 _lcd_putsf:
00177a 931a      	ST   -Y,R17
                 _0x2020017:
00177b 81e9      	LDD  R30,Y+1
00177c 81fa      	LDD  R31,Y+1+1
00177d 9631      	ADIW R30,1
00177e 83e9      	STD  Y+1,R30
00177f 83fa      	STD  Y+1+1,R31
001780 9731      	SBIW R30,1
001781 91e4      	LPM  R30,Z
001782 2f1e      	MOV  R17,R30
001783 30e0      	CPI  R30,0
001784 f019      	BREQ _0x2020019
001785 931a      	ST   -Y,R17
001786 dfc5      	RCALL _lcd_putchar
001787 cff3      	RJMP _0x2020017
                 _0x2020019:
                 _0x2080002:
001788 8118      	LDD  R17,Y+0
001789 9623      	ADIW R28,3
00178a 9508      	RET
                 _lcd_init:
00178b 9abc      	SBI  0x17,4
00178c 9abd      	SBI  0x17,5
00178d 9abe      	SBI  0x17,6
00178e 9abf      	SBI  0x17,7
00178f 9aba      	SBI  0x17,2
001790 9ab8      	SBI  0x17,0
001791 9ab9      	SBI  0x17,1
001792 98c2      	CBI  0x18,2
001793 98c0      	CBI  0x18,0
001794 98c1      	CBI  0x18,1
001795 81e8      	LD   R30,Y
001796 93e0 05eb 	STS  __lcd_maxx,R30
001798 58e0      	SUBI R30,-LOW(128)
                +
001799 93e0 05e7+STS __base_y_G101 + ( 2 ) , R30
                 	__PUTB1MN __base_y_G101,2
00179b 81e8      	LD   R30,Y
00179c 54e0      	SUBI R30,-LOW(192)
                +
00179d 93e0 05e8+STS __base_y_G101 + ( 3 ) , R30
                 	__PUTB1MN __base_y_G101,3
00179f e1e4      	LDI  R30,LOW(20)
0017a0 e0f0      	LDI  R31,HIGH(20)
0017a1 940e 18ae 	CALL SUBOPT_0x22
0017a3 940e 1a8b 	CALL SUBOPT_0x6E
0017a5 940e 1a8b 	CALL SUBOPT_0x6E
0017a7 940e 1a8b 	CALL SUBOPT_0x6E
0017a9 e2e0      	LDI  R30,LOW(32)
0017aa 93ea      	ST   -Y,R30
0017ab df4e      	RCALL __lcd_write_nibble_G101
                +
0017ac e980     +LDI R24 , LOW ( 400 )
0017ad e091     +LDI R25 , HIGH ( 400 )
                +__DELAY_USW_LOOP :
0017ae 9701     +SBIW R24 , 1
0017af f7f1     +BRNE __DELAY_USW_LOOP
                 	__DELAY_USW 400
0017b0 e2e8      	LDI  R30,LOW(40)
0017b1 93ea      	ST   -Y,R30
0017b2 df6b      	RCALL __lcd_write_data
0017b3 e0e4      	LDI  R30,LOW(4)
0017b4 93ea      	ST   -Y,R30
0017b5 df68      	RCALL __lcd_write_data
0017b6 e8e5      	LDI  R30,LOW(133)
0017b7 93ea      	ST   -Y,R30
0017b8 df65      	RCALL __lcd_write_data
0017b9 e0e6      	LDI  R30,LOW(6)
0017ba 93ea      	ST   -Y,R30
0017bb df62      	RCALL __lcd_write_data
0017bc df80      	RCALL _lcd_clear
                 _0x2080001:
0017bd 9621      	ADIW R28,1
0017be 9508      	RET
                 
                 	.CSEG
                 
                 	.CSEG
                 _strlen:
0017bf 91a9          ld   r26,y+
0017c0 91b9          ld   r27,y+
0017c1 27ee          clr  r30
0017c2 27ff          clr  r31
                 strlen0:
0017c3 916d          ld   r22,x+
0017c4 2366          tst  r22
0017c5 f011          breq strlen1
0017c6 9631          adiw r30,1
0017c7 cffb          rjmp strlen0
                 strlen1:
0017c8 9508          ret
                 _strlenf:
0017c9 27aa          clr  r26
0017ca 27bb          clr  r27
0017cb 91e9          ld   r30,y+
0017cc 91f9          ld   r31,y+
                 strlenf0:
0017cd 9005      	lpm  r0,z+
0017ce 2000          tst  r0
0017cf f011          breq strlenf1
0017d0 9611          adiw r26,1
0017d1 cffb          rjmp strlenf0
                 strlenf1:
0017d2 01fd          movw r30,r26
0017d3 9508          ret
                 
                 	.ESEG
                 _esensitive:
000000           	.BYTE 0xE
                 _espeed:
00000e           	.BYTE 0x65
                 _espeed1:
000073           	.BYTE 0x65
                 _etimer:
0000d8           	.BYTE 0x65
                 _eplan:
00013d           	.BYTE 0x15
                 _eread:
000152           	.BYTE 0x15
                 _ecut:
000167           	.BYTE 0x65
                 _ecut1:
0001cc           	.BYTE 0x65
                 _edel:
000231           	.BYTE 0x65
                 _eencomp:
000296 00        	.DB  0x0
                 _emode:
000297 00        	.DB  0x0
                 _emodekanan:
000298 00        	.DB  0x0
                 _epulsa:
000299 05        	.DB  0x5
                 _ekp:
00029a 0a        	.DB  0xA
                 _ekd:
00029b 64        	.DB  0x64
                 _eki:
00029c 00        	.DB  0x0
                 _elc:
00029d 78        	.DB  0x78
                 _elc1:
00029e 00        	.DB  0x0
                 _evc:
00029f 78        	.DB  0x78
                 _emax1:
0002a0 64        	.DB  0x64
                 
                 	.DSEG
                 _vc:
000279           	.BYTE 0x2
                 _I:
00027b           	.BYTE 0x2
                 _PV:
00027d           	.BYTE 0x2
                 _error:
00027f           	.BYTE 0x2
                 _lasterror:
000281           	.BYTE 0x2
                 _encomp:
000283           	.BYTE 0x2
                 _lc1:
000285           	.BYTE 0x2
                 _xcc:
000287           	.BYTE 0x2
                 _kp:
000289           	.BYTE 0x1
                 _kd:
00028a           	.BYTE 0x1
                 _ki:
00028b           	.BYTE 0x1
                 _pulsa:
00028c           	.BYTE 0x1
                 _batas:
00028d           	.BYTE 0x1
                 _timer:
00028e           	.BYTE 0x65
                 _speed:
0002f3           	.BYTE 0x65
                 _speed1:
000358           	.BYTE 0x65
                 _count2:
0003bd           	.BYTE 0x1
                 _start:
0003be           	.BYTE 0x1
                 _time:
0003bf           	.BYTE 0x65
                 _cacah:
000424           	.BYTE 0x1
                 _cc:
000425           	.BYTE 0x1
                 _plan:
000426           	.BYTE 0x15
                 _read:
00043b           	.BYTE 0x15
                 _SP:
000450           	.BYTE 0x1
                 _mode:
000451           	.BYTE 0x1
                 _cut:
000452           	.BYTE 0x65
                 _cut1:
0004b7           	.BYTE 0x65
                 _counting:
00051c           	.BYTE 0x1
                 _protec:
00051d           	.BYTE 0x1
                 _del:
00051e           	.BYTE 0x65
                 _tunda:
000583           	.BYTE 0x1
                 _modekanan:
000584           	.BYTE 0x1
                 _sensitive:
000585           	.BYTE 0xE
                 _in:
000593           	.BYTE 0x1
                 _adc:
000594           	.BYTE 0x1
                 _sam:
000595           	.BYTE 0x1
                 _samping:
000596           	.BYTE 0x1
                 _sam1:
000597           	.BYTE 0x1
                 _samping1:
000598           	.BYTE 0x1
                 _hight:
000599           	.BYTE 0xE
                 _low:
0005a7           	.BYTE 0xE
                 _scan:
0005b5           	.BYTE 0x1
                 _inv:
0005b6           	.BYTE 0x1
                 _invers:
0005b7           	.BYTE 0x1
                 _dep:
0005b8           	.BYTE 0x2
                 _depan:
0005ba           	.BYTE 0x2
                 _sen:
0005bc           	.BYTE 0x2
                 _sm:
0005be           	.BYTE 0x2
                 _pass:
0005c0           	.BYTE 0x2
                 _buff:
0005c2           	.BYTE 0x21
                 _pilih_start:
0005e3           	.BYTE 0x2
                 __base_y_G101:
0005e5           	.BYTE 0x4
                 __lcd_x:
0005e9           	.BYTE 0x1
                 __lcd_y:
0005ea           	.BYTE 0x1
                 __lcd_maxx:
0005eb           	.BYTE 0x1
                 
                 	.CSEG
                 ;OPTIMIZER ADDED SUBROUTINE, CALLED 8 TIMES, CODE SIZE REDUCTION:11 WORDS
                 SUBOPT_0x0:
0017d4 931a      	ST   -Y,R17
0017d5 930a      	ST   -Y,R16
                +
0017d6 e000     +LDI R16 , LOW ( 0 )
0017d7 e010     +LDI R17 , HIGH ( 0 )
                 	__GETWRN 16,17,0
0017d8 9508      	RET
                 
                 ;OPTIMIZER ADDED SUBROUTINE, CALLED 56 TIMES, CODE SIZE REDUCTION:107 WORDS
                 SUBOPT_0x1:
0017d9 e0e1      	LDI  R30,LOW(1)
0017da 93ea      	ST   -Y,R30
0017db 940c 172c 	JMP  _lcd_gotoxy
                 
                 ;OPTIMIZER ADDED SUBROUTINE, CALLED 15 TIMES, CODE SIZE REDUCTION:25 WORDS
                 SUBOPT_0x2:
0017dd e5ef      	LDI  R30,LOW(95)
0017de 93ea      	ST   -Y,R30
0017df 940c 174c 	JMP  _lcd_putchar
                 
                 ;OPTIMIZER ADDED SUBROUTINE, CALLED 2 TIMES, CODE SIZE REDUCTION:1 WORDS
                 SUBOPT_0x3:
0017e1 e5e0      	LDI  R30,LOW(80)
0017e2 e0f0      	LDI  R31,HIGH(80)
0017e3 93fa      	ST   -Y,R31
0017e4 93ea      	ST   -Y,R30
0017e5 940c 1a94 	JMP  _delay_ms
                 
                 ;OPTIMIZER ADDED SUBROUTINE, CALLED 15 TIMES, CODE SIZE REDUCTION:25 WORDS
                 SUBOPT_0x4:
0017e7 efef      	LDI  R30,LOW(255)
0017e8 93ea      	ST   -Y,R30
0017e9 940c 174c 	JMP  _lcd_putchar
                 
                 ;OPTIMIZER ADDED SUBROUTINE, CALLED 3 TIMES, CODE SIZE REDUCTION:9 WORDS
                 SUBOPT_0x5:
0017eb 940e 173d 	CALL _lcd_clear
0017ed e0e0      	LDI  R30,LOW(0)
0017ee 93ea      	ST   -Y,R30
0017ef 93ea      	ST   -Y,R30
0017f0 940c 172c 	JMP  _lcd_gotoxy
                 
                 ;OPTIMIZER ADDED SUBROUTINE, CALLED 67 TIMES, CODE SIZE REDUCTION:129 WORDS
                 SUBOPT_0x6:
0017f2 93fa      	ST   -Y,R31
0017f3 93ea      	ST   -Y,R30
0017f4 940c 177a 	JMP  _lcd_putsf
                 
                 ;OPTIMIZER ADDED SUBROUTINE, CALLED 3 TIMES, CODE SIZE REDUCTION:5 WORDS
                 SUBOPT_0x7:
0017f6 e2ec      	LDI  R30,LOW(300)
0017f7 e0f1      	LDI  R31,HIGH(300)
0017f8 93fa      	ST   -Y,R31
0017f9 93ea      	ST   -Y,R30
0017fa 940c 1a94 	JMP  _delay_ms
                 
                 ;OPTIMIZER ADDED SUBROUTINE, CALLED 16 TIMES, CODE SIZE REDUCTION:42 WORDS
                 SUBOPT_0x8:
0017fc 91e0 03be 	LDS  R30,_start
0017fe e0f0      	LDI  R31,0
0017ff 9508      	RET
                 
                 ;OPTIMIZER ADDED SUBROUTINE, CALLED 7 TIMES, CODE SIZE REDUCTION:9 WORDS
                 SUBOPT_0x9:
001800 91e0 027f 	LDS  R30,_error
001802 91f0 0280 	LDS  R31,_error+1
001804 9508      	RET
                 
                 ;OPTIMIZER ADDED SUBROUTINE, CALLED 3 TIMES, CODE SIZE REDUCTION:1 WORDS
                 SUBOPT_0xA:
001805 91a0 027b 	LDS  R26,_I
001807 91b0 027c 	LDS  R27,_I+1
001809 9508      	RET
                 
                 ;OPTIMIZER ADDED SUBROUTINE, CALLED 3 TIMES, CODE SIZE REDUCTION:3 WORDS
                 SUBOPT_0xB:
00180a 91e0 0289 	LDS  R30,_kp
00180c e0f0      	LDI  R31,0
00180d 9508      	RET
                 
                 ;OPTIMIZER ADDED SUBROUTINE, CALLED 13 TIMES, CODE SIZE REDUCTION:21 WORDS
                 SUBOPT_0xC:
00180e 91a0 027f 	LDS  R26,_error
001810 91b0 0280 	LDS  R27,_error+1
001812 9508      	RET
                 
                 ;OPTIMIZER ADDED SUBROUTINE, CALLED 2 TIMES, CODE SIZE REDUCTION:16 WORDS
                 SUBOPT_0xD:
001813 940e 1ab5 	CALL __MULW12
001815 0de8      	ADD  R30,R8
001816 1df9      	ADC  R31,R9
001817 01bf      	MOVW R22,R30
001818 91a0 0281 	LDS  R26,_lasterror
00181a 91b0 0282 	LDS  R27,_lasterror+1
00181c dfe3      	RCALL SUBOPT_0x9
00181d 1bea      	SUB  R30,R26
00181e 0bfb      	SBC  R31,R27
00181f 01df      	MOVW R26,R30
001820 91e0 028a 	LDS  R30,_kd
001822 e0f0      	LDI  R31,0
001823 940e 1ab5 	CALL __MULW12
001825 9508      	RET
                 
                 ;OPTIMIZER ADDED SUBROUTINE, CALLED 2 TIMES, CODE SIZE REDUCTION:9 WORDS
                 SUBOPT_0xE:
001826 91e0 028b 	LDS  R30,_ki
001828 e0f0      	LDI  R31,0
001829 dfdb      	RCALL SUBOPT_0xA
00182a 940e 1ab5 	CALL __MULW12
00182c 01df      	MOVW R26,R30
00182d e2e3      	LDI  R30,LOW(35)
00182e e0f0      	LDI  R31,HIGH(35)
00182f 940e 1acd 	CALL __DIVW21
001831 9508      	RET
                 
                 ;OPTIMIZER ADDED SUBROUTINE, CALLED 3 TIMES, CODE SIZE REDUCTION:5 WORDS
                 SUBOPT_0xF:
001832 e0e0      	LDI  R30,LOW(0)
001833 e0f0      	LDI  R31,HIGH(0)
001834 93fa      	ST   -Y,R31
001835 93ea      	ST   -Y,R30
001836 9508      	RET
                 
                 ;OPTIMIZER ADDED SUBROUTINE, CALLED 2 TIMES, CODE SIZE REDUCTION:7 WORDS
                 SUBOPT_0x10:
001837 940e 1b17 	CALL __SAVELOCR4
001839 efef      	LDI  R30,LOW(255)
00183a e0f0      	LDI  R31,HIGH(255)
00183b 19ec      	SUB  R30,R12
00183c 09fd      	SBC  R31,R13
00183d 5fef      	SUBI R30,LOW(-65281)
00183e 40f0      	SBCI R31,HIGH(-65281)
00183f 018f      	MOVW R16,R30
001840 01f6      	MOVW R30,R12
001841 9630      	ADIW R30,0
001842 019f      	MOVW R18,R30
001843 9508      	RET
                 
                 ;OPTIMIZER ADDED SUBROUTINE, CALLED 2 TIMES, CODE SIZE REDUCTION:14 WORDS
                 SUBOPT_0x11:
001844 5ee2      	SUBI R30,LOW(-_del)
001845 4ffa      	SBCI R31,HIGH(-_del)
001846 81e0      	LD   R30,Z
001847 93e0 0583 	STS  _tunda,R30
001849 91a0 0279 	LDS  R26,_vc
00184b 91b0 027a 	LDS  R27,_vc+1
00184d efef      	LDI  R30,LOW(255)
00184e e0f0      	LDI  R31,HIGH(255)
00184f 1bea      	SUB  R30,R26
001850 0bfb      	SBC  R31,R27
001851 5fef      	SUBI R30,LOW(-65281)
001852 40f0      	SBCI R31,HIGH(-65281)
001853 018f      	MOVW R16,R30
001854 01f6      	MOVW R30,R12
001855 9630      	ADIW R30,0
001856 019f      	MOVW R18,R30
001857 9508      	RET
                 
                 ;OPTIMIZER ADDED SUBROUTINE, CALLED 2 TIMES, CODE SIZE REDUCTION:4 WORDS
                 SUBOPT_0x12:
001858 91e0 0583 	LDS  R30,_tunda
00185a e0f0      	LDI  R31,0
00185b 93fa      	ST   -Y,R31
00185c 93ea      	ST   -Y,R30
00185d 940c 1a94 	JMP  _delay_ms
                 
                 ;OPTIMIZER ADDED SUBROUTINE, CALLED 48 TIMES, CODE SIZE REDUCTION:91 WORDS
                 SUBOPT_0x13:
00185f e0e0      	LDI  R30,LOW(0)
001860 93ea      	ST   -Y,R30
001861 cf77      	RJMP SUBOPT_0x1
                 
                 ;OPTIMIZER ADDED SUBROUTINE, CALLED 4 TIMES, CODE SIZE REDUCTION:9 WORDS
                 SUBOPT_0x14:
001862 efe4      	LDI  R30,LOW(500)
001863 e0f1      	LDI  R31,HIGH(500)
001864 93fa      	ST   -Y,R31
001865 93ea      	ST   -Y,R30
001866 940c 1a94 	JMP  _delay_ms
                 
                 ;OPTIMIZER ADDED SUBROUTINE, CALLED 17 TIMES, CODE SIZE REDUCTION:61 WORDS
                 SUBOPT_0x15:
001868 e0e0      	LDI  R30,LOW(0)
001869 93ea      	ST   -Y,R30
00186a 93ea      	ST   -Y,R30
00186b 940c 172c 	JMP  _lcd_gotoxy
                 
                 ;OPTIMIZER ADDED SUBROUTINE, CALLED 44 TIMES, CODE SIZE REDUCTION:83 WORDS
                 SUBOPT_0x16:
00186d ece2      	LDI  R30,LOW(_buff)
00186e e0f5      	LDI  R31,HIGH(_buff)
00186f 93fa      	ST   -Y,R31
001870 93ea      	ST   -Y,R30
001871 9508      	RET
                 
                 ;OPTIMIZER ADDED SUBROUTINE, CALLED 17 TIMES, CODE SIZE REDUCTION:45 WORDS
                 SUBOPT_0x17:
001872 27ff      	CLR  R31
001873 2766      	CLR  R22
001874 2777      	CLR  R23
001875 940e 1ae8 	CALL __PUTPARD1
001877 9508      	RET
                 
                 ;OPTIMIZER ADDED SUBROUTINE, CALLED 9 TIMES, CODE SIZE REDUCTION:21 WORDS
                 SUBOPT_0x18:
001878 01f8      	MOVW R30,R16
001879 940e 1aa8 	CALL __CWD1
00187b 940e 1ae8 	CALL __PUTPARD1
00187d 9508      	RET
                 
                 ;OPTIMIZER ADDED SUBROUTINE, CALLED 9 TIMES, CODE SIZE REDUCTION:13 WORDS
                 SUBOPT_0x19:
00187e e088      	LDI  R24,8
00187f 940e 16c4 	CALL _sprintf
001881 962c      	ADIW R28,12
001882 9508      	RET
                 
                 ;OPTIMIZER ADDED SUBROUTINE, CALLED 2 TIMES, CODE SIZE REDUCTION:5 WORDS
                 SUBOPT_0x1A:
001883 93ea      	ST   -Y,R30
001884 940e 030e 	CALL _read_adc
001886 2f5e      	MOV  R21,R30
001887 eaa7      	LDI  R26,LOW(_low)
001888 e0b5      	LDI  R27,HIGH(_low)
001889 0fa2      	ADD  R26,R18
00188a 1fb3      	ADC  R27,R19
00188b 91ec      	LD   R30,X
00188c 175e      	CP   R21,R30
00188d 9508      	RET
                 
                 ;OPTIMIZER ADDED SUBROUTINE, CALLED 2 TIMES, CODE SIZE REDUCTION:1 WORDS
                 SUBOPT_0x1B:
00188e e9a9      	LDI  R26,LOW(_hight)
00188f e0b5      	LDI  R27,HIGH(_hight)
001890 0fa2      	ADD  R26,R18
001891 1fb3      	ADC  R27,R19
001892 91ec      	LD   R30,X
001893 17e5      	CP   R30,R21
001894 9508      	RET
                 
                 ;OPTIMIZER ADDED SUBROUTINE, CALLED 7 TIMES, CODE SIZE REDUCTION:9 WORDS
                 SUBOPT_0x1C:
001895 91ec      	LD   R30,X
001896 e0f0      	LDI  R31,0
001897 9508      	RET
                 
                 ;OPTIMIZER ADDED SUBROUTINE, CALLED 3 TIMES, CODE SIZE REDUCTION:1 WORDS
                 SUBOPT_0x1D:
001898 940e 0386 	CALL _pwm_off
00189a 940c 038a 	JMP  _stop
                 
                 ;OPTIMIZER ADDED SUBROUTINE, CALLED 10 TIMES, CODE SIZE REDUCTION:33 WORDS
                 SUBOPT_0x1E:
00189c e084      	LDI  R24,4
00189d 940e 16c4 	CALL _sprintf
00189f 9628      	ADIW R28,8
0018a0 cfbe      	RJMP SUBOPT_0x13
                 
                 ;OPTIMIZER ADDED SUBROUTINE, CALLED 3 TIMES, CODE SIZE REDUCTION:1 WORDS
                 SUBOPT_0x1F:
0018a1 e0e1      	LDI  R30,LOW(1)
0018a2 e0f0      	LDI  R31,HIGH(1)
0018a3 17e0      	CP   R30,R16
0018a4 07f1      	CPC  R31,R17
0018a5 9508      	RET
                 
                 ;OPTIMIZER ADDED SUBROUTINE, CALLED 3 TIMES, CODE SIZE REDUCTION:1 WORDS
                 SUBOPT_0x20:
0018a6 e0f0      	LDI  R31,0
0018a7 9731      	SBIW R30,1
0018a8 9508      	RET
                 
                 ;OPTIMIZER ADDED SUBROUTINE, CALLED 3 TIMES, CODE SIZE REDUCTION:1 WORDS
                 SUBOPT_0x21:
0018a9 e0e2      	LDI  R30,LOW(2)
0018aa e0f0      	LDI  R31,HIGH(2)
0018ab 17e0      	CP   R30,R16
0018ac 07f1      	CPC  R31,R17
0018ad 9508      	RET
                 
                 ;OPTIMIZER ADDED SUBROUTINE, CALLED 26 TIMES, CODE SIZE REDUCTION:47 WORDS
                 SUBOPT_0x22:
0018ae 93fa      	ST   -Y,R31
0018af 93ea      	ST   -Y,R30
0018b0 940c 1a94 	JMP  _delay_ms
                 
                 ;OPTIMIZER ADDED SUBROUTINE, CALLED 8 TIMES, CODE SIZE REDUCTION:18 WORDS
                 SUBOPT_0x23:
0018b2 9ac3      	SBI  0x18,3
                +
0018b3 e0ed     +LDI R30 , LOW ( 2 * _0x0 + ( 163 ) )
0018b4 e0f1     +LDI R31 , HIGH ( 2 * _0x0 + ( 163 ) )
                 	__POINTW1FN _0x0,163
0018b5 cf3c      	RJMP SUBOPT_0x6
                 
                 ;OPTIMIZER ADDED SUBROUTINE, CALLED 8 TIMES, CODE SIZE REDUCTION:11 WORDS
                 SUBOPT_0x24:
0018b6 93fa      	ST   -Y,R31
0018b7 93ea      	ST   -Y,R30
0018b8 cfbf      	RJMP SUBOPT_0x18
                 
                 ;OPTIMIZER ADDED SUBROUTINE, CALLED 6 TIMES, CODE SIZE REDUCTION:12 WORDS
                 SUBOPT_0x25:
0018b9 0fa0      	ADD  R26,R16
0018ba 1fb1      	ADC  R27,R17
0018bb 91ec      	LD   R30,X
0018bc cfb5      	RJMP SUBOPT_0x17
                 
                 ;OPTIMIZER ADDED SUBROUTINE, CALLED 5 TIMES, CODE SIZE REDUCTION:33 WORDS
                 SUBOPT_0x26:
0018bd 01f8      	MOVW R30,R16
0018be 9631      	ADIW R30,1
0018bf 018f      	MOVW R16,R30
0018c0 01df      	MOVW R26,R30
0018c1 91e0 028d 	LDS  R30,_batas
0018c3 e0f0      	LDI  R31,0
0018c4 17ea      	CP   R30,R26
0018c5 07fb      	CPC  R31,R27
0018c6 9508      	RET
                 
                 ;OPTIMIZER ADDED SUBROUTINE, CALLED 3 TIMES, CODE SIZE REDUCTION:5 WORDS
                 SUBOPT_0x27:
0018c7 01f8      	MOVW R30,R16
0018c8 9731      	SBIW R30,1
0018c9 018f      	MOVW R16,R30
0018ca 3fef      	CPI  R30,LOW(0xFFFF)
0018cb efaf      	LDI  R26,HIGH(0xFFFF)
0018cc 07fa      	CPC  R31,R26
0018cd 9508      	RET
                 
                 ;OPTIMIZER ADDED SUBROUTINE, CALLED 2 TIMES, CODE SIZE REDUCTION:3 WORDS
                 SUBOPT_0x28:
0018ce 01f8      	MOVW R30,R16
0018cf 57e2      	SUBI R30,LOW(-_timer)
0018d0 4ffd      	SBCI R31,HIGH(-_timer)
0018d1 010f      	MOVW R0,R30
0018d2 e8ae      	LDI  R26,LOW(_timer)
0018d3 e0b2      	LDI  R27,HIGH(_timer)
0018d4 0fa0      	ADD  R26,R16
0018d5 1fb1      	ADC  R27,R17
0018d6 9508      	RET
                 
                 ;OPTIMIZER ADDED SUBROUTINE, CALLED 3 TIMES, CODE SIZE REDUCTION:1 WORDS
                 SUBOPT_0x29:
0018d7 91ec      	LD   R30,X
0018d8 5fef      	SUBI R30,-LOW(1)
0018d9 01d0      	MOVW R26,R0
0018da 93ec      	ST   X,R30
0018db 9508      	RET
                 
                 ;OPTIMIZER ADDED SUBROUTINE, CALLED 6 TIMES, CODE SIZE REDUCTION:12 WORDS
                 SUBOPT_0x2A:
0018dc 940e 173d 	CALL _lcd_clear
0018de e0e0      	LDI  R30,LOW(0)
0018df 93e0 03bd 	STS  _count2,R30
0018e1 9508      	RET
                 
                 ;OPTIMIZER ADDED SUBROUTINE, CALLED 24 TIMES, CODE SIZE REDUCTION:66 WORDS
                 SUBOPT_0x2B:
0018e2 91e0 028d 	LDS  R30,_batas
0018e4 91a0 03bd 	LDS  R26,_count2
0018e6 17ea      	CP   R30,R26
0018e7 9508      	RET
                 
                 ;OPTIMIZER ADDED SUBROUTINE, CALLED 31 TIMES, CODE SIZE REDUCTION:87 WORDS
                 SUBOPT_0x2C:
0018e8 91a0 03bd 	LDS  R26,_count2
0018ea e0b0      	LDI  R27,0
0018eb 9508      	RET
                 
                 ;OPTIMIZER ADDED SUBROUTINE, CALLED 25 TIMES, CODE SIZE REDUCTION:69 WORDS
                 SUBOPT_0x2D:
0018ec 91e0 03bd 	LDS  R30,_count2
0018ee e0f0      	LDI  R31,0
0018ef 9508      	RET
                 
                 ;OPTIMIZER ADDED SUBROUTINE, CALLED 33 TIMES, CODE SIZE REDUCTION:93 WORDS
                 SUBOPT_0x2E:
0018f0 91e0 03bd 	LDS  R30,_count2
0018f2 5fef      	SUBI R30,-LOW(1)
0018f3 93e0 03bd 	STS  _count2,R30
0018f5 9508      	RET
                 
                 ;OPTIMIZER ADDED SUBROUTINE, CALLED 12 TIMES, CODE SIZE REDUCTION:19 WORDS
                 SUBOPT_0x2F:
0018f6 e9e6      	LDI  R30,LOW(150)
0018f7 e0f0      	LDI  R31,HIGH(150)
0018f8 cfb5      	RJMP SUBOPT_0x22
                 
                 ;OPTIMIZER ADDED SUBROUTINE, CALLED 3 TIMES, CODE SIZE REDUCTION:1 WORDS
                 SUBOPT_0x30:
0018f9 931a      	ST   -Y,R17
0018fa 930a      	ST   -Y,R16
                +
0018fb e001     +LDI R16 , LOW ( 1 )
0018fc e010     +LDI R17 , HIGH ( 1 )
                 	__GETWRN 16,17,1
0018fd 9508      	RET
                 
                 ;OPTIMIZER ADDED SUBROUTINE, CALLED 2 TIMES, CODE SIZE REDUCTION:3 WORDS
                 SUBOPT_0x31:
0018fe 01f8      	MOVW R30,R16
0018ff 5ee2      	SUBI R30,LOW(-_del)
001900 4ffa      	SBCI R31,HIGH(-_del)
001901 010f      	MOVW R0,R30
001902 e1ae      	LDI  R26,LOW(_del)
001903 e0b5      	LDI  R27,HIGH(_del)
001904 0fa0      	ADD  R26,R16
001905 1fb1      	ADC  R27,R17
001906 9508      	RET
                 
                 ;OPTIMIZER ADDED SUBROUTINE, CALLED 3 TIMES, CODE SIZE REDUCTION:1 WORDS
                 SUBOPT_0x32:
001907 91ec      	LD   R30,X
001908 5feb      	SUBI R30,-LOW(5)
001909 01d0      	MOVW R26,R0
00190a 93ec      	ST   X,R30
00190b 9508      	RET
                 
                 ;OPTIMIZER ADDED SUBROUTINE, CALLED 2 TIMES, CODE SIZE REDUCTION:3 WORDS
                 SUBOPT_0x33:
00190c 01f8      	MOVW R30,R16
00190d 50ed      	SUBI R30,LOW(-_speed)
00190e 4ffd      	SBCI R31,HIGH(-_speed)
00190f 010f      	MOVW R0,R30
001910 efa3      	LDI  R26,LOW(_speed)
001911 e0b2      	LDI  R27,HIGH(_speed)
001912 0fa0      	ADD  R26,R16
001913 1fb1      	ADC  R27,R17
001914 9508      	RET
                 
                 ;OPTIMIZER ADDED SUBROUTINE, CALLED 2 TIMES, CODE SIZE REDUCTION:3 WORDS
                 SUBOPT_0x34:
001915 01f8      	MOVW R30,R16
001916 5ae8      	SUBI R30,LOW(-_speed1)
001917 4ffc      	SBCI R31,HIGH(-_speed1)
001918 010f      	MOVW R0,R30
001919 e5a8      	LDI  R26,LOW(_speed1)
00191a e0b3      	LDI  R27,HIGH(_speed1)
00191b 0fa0      	ADD  R26,R16
00191c 1fb1      	ADC  R27,R17
00191d 9508      	RET
                 
                 ;OPTIMIZER ADDED SUBROUTINE, CALLED 2 TIMES, CODE SIZE REDUCTION:3 WORDS
                 SUBOPT_0x35:
00191e 01f8      	MOVW R30,R16
00191f 5dea      	SUBI R30,LOW(-_plan)
001920 4ffb      	SBCI R31,HIGH(-_plan)
001921 010f      	MOVW R0,R30
001922 e2a6      	LDI  R26,LOW(_plan)
001923 e0b4      	LDI  R27,HIGH(_plan)
001924 0fa0      	ADD  R26,R16
001925 1fb1      	ADC  R27,R17
001926 9508      	RET
                 
                 ;OPTIMIZER ADDED SUBROUTINE, CALLED 2 TIMES, CODE SIZE REDUCTION:3 WORDS
                 SUBOPT_0x36:
001927 01f8      	MOVW R30,R16
001928 5ce5      	SUBI R30,LOW(-_read)
001929 4ffb      	SBCI R31,HIGH(-_read)
00192a 010f      	MOVW R0,R30
00192b e3ab      	LDI  R26,LOW(_read)
00192c e0b4      	LDI  R27,HIGH(_read)
00192d 0fa0      	ADD  R26,R16
00192e 1fb1      	ADC  R27,R17
00192f 9508      	RET
                 
                 ;OPTIMIZER ADDED SUBROUTINE, CALLED 4 TIMES, CODE SIZE REDUCTION:3 WORDS
                 SUBOPT_0x37:
001930 940e 030e 	CALL _read_adc
001932 93e0 0593 	STS  _in,R30
001934 9508      	RET
                 
                 ;OPTIMIZER ADDED SUBROUTINE, CALLED 6 TIMES, CODE SIZE REDUCTION:37 WORDS
                 SUBOPT_0x38:
001935 e0e4      	LDI  R30,LOW(4)
001936 93ea      	ST   -Y,R30
001937 e0e0      	LDI  R30,LOW(0)
001938 93ea      	ST   -Y,R30
001939 940e 172c 	CALL _lcd_gotoxy
                +
00193b e1e1     +LDI R30 , LOW ( 2 * _0x0 + ( 167 ) )
00193c e0f1     +LDI R31 , HIGH ( 2 * _0x0 + ( 167 ) )
                 	__POINTW1FN _0x0,167
00193d ceb4      	RJMP SUBOPT_0x6
                 
                 ;OPTIMIZER ADDED SUBROUTINE, CALLED 5 TIMES, CODE SIZE REDUCTION:13 WORDS
                 SUBOPT_0x39:
00193e 940e 1aa8 	CALL __CWD1
001940 940e 1ae8 	CALL __PUTPARD1
001942 cf59      	RJMP SUBOPT_0x1E
                 
                 ;OPTIMIZER ADDED SUBROUTINE, CALLED 2 TIMES, CODE SIZE REDUCTION:2 WORDS
                 SUBOPT_0x3A:
001943 81e8      	LD   R30,Y
001944 81f9      	LDD  R31,Y+1
001945 9631      	ADIW R30,1
001946 83e8      	ST   Y,R30
001947 83f9      	STD  Y+1,R31
001948 940c 173d 	JMP  _lcd_clear
                 
                 ;OPTIMIZER ADDED SUBROUTINE, CALLED 5 TIMES, CODE SIZE REDUCTION:29 WORDS
                 SUBOPT_0x3B:
00194a e0e2      	LDI  R30,LOW(2)
00194b 93ea      	ST   -Y,R30
00194c e0e0      	LDI  R30,LOW(0)
00194d 93ea      	ST   -Y,R30
00194e 940e 172c 	CALL _lcd_gotoxy
                +
001950 e4ed     +LDI R30 , LOW ( 2 * _0x0 + ( 483 ) )
001951 e0f2     +LDI R31 , HIGH ( 2 * _0x0 + ( 483 ) )
                 	__POINTW1FN _0x0,483
001952 ce9f      	RJMP SUBOPT_0x6
                 
                 ;OPTIMIZER ADDED SUBROUTINE, CALLED 3 TIMES, CODE SIZE REDUCTION:1 WORDS
                 SUBOPT_0x3C:
001953 91e0 0279 	LDS  R30,_vc
001955 91f0 027a 	LDS  R31,_vc+1
001957 9508      	RET
                 
                 ;OPTIMIZER ADDED SUBROUTINE, CALLED 2 TIMES, CODE SIZE REDUCTION:1 WORDS
                 SUBOPT_0x3D:
001958 93e0 0279 	STS  _vc,R30
00195a 93f0 027a 	STS  _vc+1,R31
00195c cf99      	RJMP SUBOPT_0x2F
                 
                 ;OPTIMIZER ADDED SUBROUTINE, CALLED 4 TIMES, CODE SIZE REDUCTION:3 WORDS
                 SUBOPT_0x3E:
00195d 91e0 0285 	LDS  R30,_lc1
00195f 91f0 0286 	LDS  R31,_lc1+1
001961 9508      	RET
                 
                 ;OPTIMIZER ADDED SUBROUTINE, CALLED 4 TIMES, CODE SIZE REDUCTION:3 WORDS
                 SUBOPT_0x3F:
001962 93e0 0285 	STS  _lc1,R30
001964 93f0 0286 	STS  _lc1+1,R31
001966 9508      	RET
                 
                 ;OPTIMIZER ADDED SUBROUTINE, CALLED 4 TIMES, CODE SIZE REDUCTION:3 WORDS
                 SUBOPT_0x40:
001967 91a0 0285 	LDS  R26,_lc1
001969 91b0 0286 	LDS  R27,_lc1+1
00196b 9508      	RET
                 
                 ;OPTIMIZER ADDED SUBROUTINE, CALLED 8 TIMES, CODE SIZE REDUCTION:11 WORDS
                 SUBOPT_0x41:
00196c 91a0 0283 	LDS  R26,_encomp
00196e 91b0 0284 	LDS  R27,_encomp+1
001970 9508      	RET
                 
                 ;OPTIMIZER ADDED SUBROUTINE, CALLED 3 TIMES, CODE SIZE REDUCTION:1 WORDS
                 SUBOPT_0x42:
001971 91e0 0283 	LDS  R30,_encomp
001973 91f0 0284 	LDS  R31,_encomp+1
001975 9508      	RET
                 
                 ;OPTIMIZER ADDED SUBROUTINE, CALLED 4 TIMES, CODE SIZE REDUCTION:3 WORDS
                 SUBOPT_0x43:
001976 93e0 0283 	STS  _encomp,R30
001978 93f0 0284 	STS  _encomp+1,R31
00197a 9508      	RET
                 
                 ;OPTIMIZER ADDED SUBROUTINE, CALLED 5 TIMES, CODE SIZE REDUCTION:9 WORDS
                 SUBOPT_0x44:
00197b e0f0      	LDI  R31,0
00197c 17ea      	CP   R30,R26
00197d 07fb      	CPC  R31,R27
00197e 9508      	RET
                 
                 ;OPTIMIZER ADDED SUBROUTINE, CALLED 17 TIMES, CODE SIZE REDUCTION:77 WORDS
                 SUBOPT_0x45:
00197f 91e0 0594 	LDS  R30,_adc
001981 e0f0      	LDI  R31,0
001982 57eb      	SUBI R30,LOW(-_sensitive)
001983 4ffa      	SBCI R31,HIGH(-_sensitive)
001984 9508      	RET
                 
                 ;OPTIMIZER ADDED SUBROUTINE, CALLED 14 TIMES, CODE SIZE REDUCTION:62 WORDS
                 SUBOPT_0x46:
001985 93ea      	ST   -Y,R30
001986 e0e0      	LDI  R30,LOW(0)
001987 93ea      	ST   -Y,R30
001988 940e 172c 	CALL _lcd_gotoxy
00198a cff4      	RJMP SUBOPT_0x45
                 
                 ;OPTIMIZER ADDED SUBROUTINE, CALLED 14 TIMES, CODE SIZE REDUCTION:23 WORDS
                 SUBOPT_0x47:
00198b 81e0      	LD   R30,Z
00198c 91a0 0593 	LDS  R26,_in
00198e 17ea      	CP   R30,R26
00198f 9508      	RET
                 
                 ;OPTIMIZER ADDED SUBROUTINE, CALLED 13 TIMES, CODE SIZE REDUCTION:21 WORDS
                 SUBOPT_0x48:
001990 91e0 05b8 	LDS  R30,_dep
001992 91f0 05b9 	LDS  R31,_dep+1
001994 9508      	RET
                 
                 ;OPTIMIZER ADDED SUBROUTINE, CALLED 12 TIMES, CODE SIZE REDUCTION:41 WORDS
                 SUBOPT_0x49:
001995 93e0 05b8 	STS  _dep,R30
001997 93f0 05b9 	STS  _dep+1,R31
001999 ce4d      	RJMP SUBOPT_0x4
                 
                 ;OPTIMIZER ADDED SUBROUTINE, CALLED 14 TIMES, CODE SIZE REDUCTION:23 WORDS
                 SUBOPT_0x4A:
00199a 93e0 05bc 	STS  _sen,R30
00199c 93f0 05bd 	STS  _sen+1,R31
00199e 9508      	RET
                 
                 ;OPTIMIZER ADDED SUBROUTINE, CALLED 5 TIMES, CODE SIZE REDUCTION:9 WORDS
                 SUBOPT_0x4B:
00199f 91e0 0594 	LDS  R30,_adc
0019a1 5fef      	SUBI R30,-LOW(1)
0019a2 93e0 0594 	STS  _adc,R30
0019a4 9508      	RET
                 
                 ;OPTIMIZER ADDED SUBROUTINE, CALLED 3 TIMES, CODE SIZE REDUCTION:5 WORDS
                 SUBOPT_0x4C:
0019a5 93e0 05ba 	STS  _depan,R30
0019a7 93f0 05bb 	STS  _depan+1,R31
0019a9 91e0 0595 	LDS  R30,_sam
0019ab 9508      	RET
                 
                 ;OPTIMIZER ADDED SUBROUTINE, CALLED 4 TIMES, CODE SIZE REDUCTION:18 WORDS
                 SUBOPT_0x4D:
0019ac 010f      	MOVW R0,R30
0019ad 54e1      	SUBI R30,LOW(-_time)
0019ae 4ffc      	SBCI R31,HIGH(-_time)
0019af 81a0      	LD   R26,Z
0019b0 01f0      	MOVW R30,R0
0019b1 57e2      	SUBI R30,LOW(-_timer)
0019b2 4ffd      	SBCI R31,HIGH(-_timer)
0019b3 81e0      	LD   R30,Z
0019b4 17ae      	CP   R26,R30
0019b5 9508      	RET
                 
                 ;OPTIMIZER ADDED SUBROUTINE, CALLED 5 TIMES, CODE SIZE REDUCTION:5 WORDS
                 SUBOPT_0x4E:
0019b6 940e 1aa8 	CALL __CWD1
0019b8 940e 1ae8 	CALL __PUTPARD1
0019ba 9508      	RET
                 
                 ;OPTIMIZER ADDED SUBROUTINE, CALLED 2 TIMES, CODE SIZE REDUCTION:1 WORDS
                 SUBOPT_0x4F:
0019bb e180      	LDI  R24,16
0019bc 940e 16c4 	CALL _sprintf
0019be 9664      	ADIW R28,20
0019bf cead      	RJMP SUBOPT_0x16
                 
                 ;OPTIMIZER ADDED SUBROUTINE, CALLED 2 TIMES, CODE SIZE REDUCTION:5 WORDS
                 SUBOPT_0x50:
0019c0 91a0 05b8 	LDS  R26,_dep
0019c2 91b0 05b9 	LDS  R27,_dep+1
0019c4 efef      	LDI  R30,LOW(4095)
0019c5 e0ff      	LDI  R31,HIGH(4095)
0019c6 1bea      	SUB  R30,R26
0019c7 0bfb      	SBC  R31,R27
0019c8 cfdc      	RJMP SUBOPT_0x4C
                 
                 ;OPTIMIZER ADDED SUBROUTINE, CALLED 2 TIMES, CODE SIZE REDUCTION:7 WORDS
                 SUBOPT_0x51:
0019c9 e0f0      	LDI  R31,0
0019ca e0ad      	LDI  R26,LOW(13)
0019cb e0b0      	LDI  R27,HIGH(13)
0019cc 940e 1aed 	CALL __SWAPW12
0019ce 1bea      	SUB  R30,R26
0019cf 0bfb      	SBC  R31,R27
0019d0 93e0 0596 	STS  _samping,R30
0019d2 9ac3      	SBI  0x18,3
0019d3 9508      	RET
                 
                 ;OPTIMIZER ADDED SUBROUTINE, CALLED 3 TIMES, CODE SIZE REDUCTION:1 WORDS
                 SUBOPT_0x52:
0019d4 91e0 05ba 	LDS  R30,_depan
0019d6 91f0 05bb 	LDS  R31,_depan+1
0019d8 9508      	RET
                 
                 ;OPTIMIZER ADDED SUBROUTINE, CALLED 42 TIMES, CODE SIZE REDUCTION:79 WORDS
                 SUBOPT_0x53:
0019d9 93e0 027f 	STS  _error,R30
0019db 93f0 0280 	STS  _error+1,R31
0019dd 9508      	RET
                 
                 ;OPTIMIZER ADDED SUBROUTINE, CALLED 3 TIMES, CODE SIZE REDUCTION:3 WORDS
                 SUBOPT_0x54:
0019de e0e0      	LDI  R30,LOW(0)
0019df 93e0 027f 	STS  _error,R30
0019e1 93e0 0280 	STS  _error+1,R30
0019e3 9508      	RET
                 
                 ;OPTIMIZER ADDED SUBROUTINE, CALLED 3 TIMES, CODE SIZE REDUCTION:15 WORDS
                 SUBOPT_0x55:
0019e4 9468      	SET
0019e5 f821      	BLD  R2,1
0019e6 e3e4      	LDI  R30,LOW(52)
0019e7 e0f0      	LDI  R31,HIGH(52)
0019e8 dff0      	RCALL SUBOPT_0x53
0019e9 940e 0395 	CALL _kananlancip
0019eb e0e1      	LDI  R30,LOW(1)
0019ec 93e0 05b5 	STS  _scan,R30
0019ee 9508      	RET
                 
                 ;OPTIMIZER ADDED SUBROUTINE, CALLED 4 TIMES, CODE SIZE REDUCTION:3 WORDS
                 SUBOPT_0x56:
0019ef 91a0 05ba 	LDS  R26,_depan
0019f1 91b0 05bb 	LDS  R27,_depan+1
0019f3 9508      	RET
                 
                 ;OPTIMIZER ADDED SUBROUTINE, CALLED 3 TIMES, CODE SIZE REDUCTION:15 WORDS
                 SUBOPT_0x57:
0019f4 9468      	SET
0019f5 f821      	BLD  R2,1
0019f6 ecec      	LDI  R30,LOW(65484)
0019f7 efff      	LDI  R31,HIGH(65484)
0019f8 dfe0      	RCALL SUBOPT_0x53
0019f9 940e 039d 	CALL _kirilancip
0019fb e0e1      	LDI  R30,LOW(1)
0019fc 93e0 05b5 	STS  _scan,R30
0019fe 9508      	RET
                 
                 ;OPTIMIZER ADDED SUBROUTINE, CALLED 3 TIMES, CODE SIZE REDUCTION:3 WORDS
                 SUBOPT_0x58:
0019ff 91ed      	LD   R30,X+
001a00 91fd      	LD   R31,X+
001a01 9631      	ADIW R30,1
001a02 93fe      	ST   -X,R31
001a03 93ee      	ST   -X,R30
001a04 9508      	RET
                 
                 ;OPTIMIZER ADDED SUBROUTINE, CALLED 4 TIMES, CODE SIZE REDUCTION:3 WORDS
                 SUBOPT_0x59:
001a05 ece8      	LDI  R30,LOW(200)
001a06 e0f0      	LDI  R31,HIGH(200)
001a07 cea6      	RJMP SUBOPT_0x22
                 
                 ;OPTIMIZER ADDED SUBROUTINE, CALLED 6 TIMES, CODE SIZE REDUCTION:7 WORDS
                 SUBOPT_0x5A:
001a08 e0e9      	LDI  R30,LOW(9)
001a09 93ea      	ST   -Y,R30
001a0a cdce      	RJMP SUBOPT_0x1
                 
                 ;OPTIMIZER ADDED SUBROUTINE, CALLED 5 TIMES, CODE SIZE REDUCTION:5 WORDS
                 SUBOPT_0x5B:
                +
001a0b eee1     +LDI R30 , LOW ( 2 * _0x0 + ( 887 ) )
001a0c e0f3     +LDI R31 , HIGH ( 2 * _0x0 + ( 887 ) )
                 	__POINTW1FN _0x0,887
001a0d cde4      	RJMP SUBOPT_0x6
                 
                 ;OPTIMIZER ADDED SUBROUTINE, CALLED 3 TIMES, CODE SIZE REDUCTION:1 WORDS
                 SUBOPT_0x5C:
001a0e 91a0 05e3 	LDS  R26,_pilih_start
001a10 91b0 05e4 	LDS  R27,_pilih_start+1
001a12 9508      	RET
                 
                 ;OPTIMIZER ADDED SUBROUTINE, CALLED 3 TIMES, CODE SIZE REDUCTION:7 WORDS
                 SUBOPT_0x5D:
001a13 91a0 0594 	LDS  R26,_adc
001a15 e0b0      	LDI  R27,0
001a16 50a0      	SUBI R26,LOW(-_esensitive)
001a17 40b0      	SBCI R27,HIGH(-_esensitive)
001a18 9508      	RET
                 
                 ;OPTIMIZER ADDED SUBROUTINE, CALLED 2 TIMES, CODE SIZE REDUCTION:1 WORDS
                 SUBOPT_0x5E:
001a19 59a9      	SUBI R26,LOW(-_ecut)
001a1a 4fbe      	SBCI R27,HIGH(-_ecut)
001a1b 940e 1af4 	CALL __EEPROMRDB
001a1d 01d0      	MOVW R26,R0
001a1e 93ec      	ST   X,R30
001a1f 9508      	RET
                 
                 ;OPTIMIZER ADDED SUBROUTINE, CALLED 2 TIMES, CODE SIZE REDUCTION:1 WORDS
                 SUBOPT_0x5F:
001a20 53a4      	SUBI R26,LOW(-_ecut1)
001a21 4fbe      	SBCI R27,HIGH(-_ecut1)
001a22 940e 1af4 	CALL __EEPROMRDB
001a24 01d0      	MOVW R26,R0
001a25 93ec      	ST   X,R30
001a26 9508      	RET
                 
                 ;OPTIMIZER ADDED SUBROUTINE, CALLED 2 TIMES, CODE SIZE REDUCTION:1 WORDS
                 SUBOPT_0x60:
001a27 5caf      	SUBI R26,LOW(-_edel)
001a28 4fbd      	SBCI R27,HIGH(-_edel)
001a29 940e 1af4 	CALL __EEPROMRDB
001a2b 01d0      	MOVW R26,R0
001a2c 93ec      	ST   X,R30
001a2d 9508      	RET
                 
                 ;OPTIMIZER ADDED SUBROUTINE, CALLED 2 TIMES, CODE SIZE REDUCTION:1 WORDS
                 SUBOPT_0x61:
001a2e 5aae      	SUBI R26,LOW(-_eread)
001a2f 4fbe      	SBCI R27,HIGH(-_eread)
001a30 940e 1af4 	CALL __EEPROMRDB
001a32 01d0      	MOVW R26,R0
001a33 93ec      	ST   X,R30
001a34 9508      	RET
                 
                 ;OPTIMIZER ADDED SUBROUTINE, CALLED 2 TIMES, CODE SIZE REDUCTION:1 WORDS
                 SUBOPT_0x62:
001a35 5ca3      	SUBI R26,LOW(-_eplan)
001a36 4fbe      	SBCI R27,HIGH(-_eplan)
001a37 940e 1af4 	CALL __EEPROMRDB
001a39 01d0      	MOVW R26,R0
001a3a 93ec      	ST   X,R30
001a3b 9508      	RET
                 
                 ;OPTIMIZER ADDED SUBROUTINE, CALLED 2 TIMES, CODE SIZE REDUCTION:1 WORDS
                 SUBOPT_0x63:
001a3c 5fa2      	SUBI R26,LOW(-_espeed)
001a3d 4fbf      	SBCI R27,HIGH(-_espeed)
001a3e 940e 1af4 	CALL __EEPROMRDB
001a40 01d0      	MOVW R26,R0
001a41 93ec      	ST   X,R30
001a42 9508      	RET
                 
                 ;OPTIMIZER ADDED SUBROUTINE, CALLED 2 TIMES, CODE SIZE REDUCTION:1 WORDS
                 SUBOPT_0x64:
001a43 58ad      	SUBI R26,LOW(-_espeed1)
001a44 4fbf      	SBCI R27,HIGH(-_espeed1)
001a45 940e 1af4 	CALL __EEPROMRDB
001a47 01d0      	MOVW R26,R0
001a48 93ec      	ST   X,R30
001a49 9508      	RET
                 
                 ;OPTIMIZER ADDED SUBROUTINE, CALLED 2 TIMES, CODE SIZE REDUCTION:1 WORDS
                 SUBOPT_0x65:
001a4a 52a8      	SUBI R26,LOW(-_etimer)
001a4b 4fbf      	SBCI R27,HIGH(-_etimer)
001a4c 940e 1af4 	CALL __EEPROMRDB
001a4e 01d0      	MOVW R26,R0
001a4f 93ec      	ST   X,R30
001a50 9508      	RET
                 
                 ;OPTIMIZER ADDED SUBROUTINE, CALLED 3 TIMES, CODE SIZE REDUCTION:3 WORDS
                 SUBOPT_0x66:
001a51 940e 1af4 	CALL __EEPROMRDB
001a53 e0f0      	LDI  R31,0
001a54 9508      	RET
                 
                 ;OPTIMIZER ADDED SUBROUTINE, CALLED 5 TIMES, CODE SIZE REDUCTION:21 WORDS
                 SUBOPT_0x67:
001a55 932a      	ST   -Y,R18
001a56 85ed      	LDD  R30,Y+13
001a57 85fe      	LDD  R31,Y+13+1
001a58 93fa      	ST   -Y,R31
001a59 93ea      	ST   -Y,R30
001a5a 89e9      	LDD  R30,Y+17
001a5b 89fa      	LDD  R31,Y+17+1
001a5c 9509      	ICALL
001a5d 9508      	RET
                 
                 ;OPTIMIZER ADDED SUBROUTINE, CALLED 5 TIMES, CODE SIZE REDUCTION:9 WORDS
                 SUBOPT_0x68:
001a5e 89e8      	LDD  R30,Y+16
001a5f 89f9      	LDD  R31,Y+16+1
001a60 9734      	SBIW R30,4
001a61 8be8      	STD  Y+16,R30
001a62 8bf9      	STD  Y+16+1,R31
001a63 9508      	RET
                 
                 ;OPTIMIZER ADDED SUBROUTINE, CALLED 3 TIMES, CODE SIZE REDUCTION:7 WORDS
                 SUBOPT_0x69:
001a64 85ed      	LDD  R30,Y+13
001a65 85fe      	LDD  R31,Y+13+1
001a66 93fa      	ST   -Y,R31
001a67 93ea      	ST   -Y,R30
001a68 89e9      	LDD  R30,Y+17
001a69 89fa      	LDD  R31,Y+17+1
001a6a 9509      	ICALL
001a6b 9508      	RET
                 
                 ;OPTIMIZER ADDED SUBROUTINE, CALLED 2 TIMES, CODE SIZE REDUCTION:6 WORDS
                 SUBOPT_0x6A:
001a6c 89a8      	LDD  R26,Y+16
001a6d 89b9      	LDD  R27,Y+16+1
001a6e 9614      	ADIW R26,4
001a6f 940e 1ae0 	CALL __GETW1P
001a71 83ee      	STD  Y+6,R30
001a72 83ff      	STD  Y+6+1,R31
001a73 93fa      	ST   -Y,R31
001a74 93ea      	ST   -Y,R30
001a75 9508      	RET
                 
                 ;OPTIMIZER ADDED SUBROUTINE, CALLED 2 TIMES, CODE SIZE REDUCTION:2 WORDS
                 SUBOPT_0x6B:
001a76 89a8      	LDD  R26,Y+16
001a77 89b9      	LDD  R27,Y+16+1
001a78 9614      	ADIW R26,4
001a79 940e 1ae0 	CALL __GETW1P
001a7b 87ea      	STD  Y+10,R30
001a7c 87fb      	STD  Y+10+1,R31
001a7d 9508      	RET
                 
                 ;OPTIMIZER ADDED SUBROUTINE, CALLED 2 TIMES, CODE SIZE REDUCTION:1 WORDS
                 SUBOPT_0x6C:
001a7e 01de      	MOVW R26,R28
001a7f 961c      	ADIW R26,12
001a80 940e 1aa0 	CALL __ADDW2R15
001a82 940e 1ae0 	CALL __GETW1P
001a84 9508      	RET
                 
                 ;OPTIMIZER ADDED SUBROUTINE, CALLED 2 TIMES, CODE SIZE REDUCTION:2 WORDS
                 SUBOPT_0x6D:
001a85 93ea      	ST   -Y,R30
001a86 940e 171e 	CALL __lcd_write_data
001a88 e0e3      	LDI  R30,LOW(3)
001a89 e0f0      	LDI  R31,HIGH(3)
001a8a ce23      	RJMP SUBOPT_0x22
                 
                 ;OPTIMIZER ADDED SUBROUTINE, CALLED 3 TIMES, CODE SIZE REDUCTION:9 WORDS
                 SUBOPT_0x6E:
001a8b e3e0      	LDI  R30,LOW(48)
001a8c 93ea      	ST   -Y,R30
001a8d 940e 16fa 	CALL __lcd_write_nibble_G101
                +
001a8f e980     +LDI R24 , LOW ( 400 )
001a90 e091     +LDI R25 , HIGH ( 400 )
                +__DELAY_USW_LOOP :
001a91 9701     +SBIW R24 , 1
001a92 f7f1     +BRNE __DELAY_USW_LOOP
                 	__DELAY_USW 400
001a93 9508      	RET
                 
                 
                 	.CSEG
                 _delay_ms:
001a94 91e9      	ld   r30,y+
001a95 91f9      	ld   r31,y+
001a96 9630      	adiw r30,0
001a97 f039      	breq __delay_ms1
                 __delay_ms0:
                +
001a98 ea80     +LDI R24 , LOW ( 0xFA0 )
001a99 e09f     +LDI R25 , HIGH ( 0xFA0 )
                +__DELAY_USW_LOOP :
001a9a 9701     +SBIW R24 , 1
001a9b f7f1     +BRNE __DELAY_USW_LOOP
                 	__DELAY_USW 0xFA0
001a9c 95a8      	wdr
001a9d 9731      	sbiw r30,1
001a9e f7c9      	brne __delay_ms0
                 __delay_ms1:
001a9f 9508      	ret
                 
                 __ADDW2R15:
001aa0 2400      	CLR  R0
001aa1 0daf      	ADD  R26,R15
001aa2 1db0      	ADC  R27,R0
001aa3 9508      	RET
                 
                 __ANEGW1:
001aa4 95f1      	NEG  R31
001aa5 95e1      	NEG  R30
001aa6 40f0      	SBCI R31,0
001aa7 9508      	RET
                 
                 __CWD1:
001aa8 2f6f      	MOV  R22,R31
001aa9 0f66      	ADD  R22,R22
001aaa 0b66      	SBC  R22,R22
001aab 2f76      	MOV  R23,R22
001aac 9508      	RET
                 
                 __MULW12U:
001aad 9ffa      	MUL  R31,R26
001aae 2df0      	MOV  R31,R0
001aaf 9feb      	MUL  R30,R27
001ab0 0df0      	ADD  R31,R0
001ab1 9fea      	MUL  R30,R26
001ab2 2de0      	MOV  R30,R0
001ab3 0df1      	ADD  R31,R1
001ab4 9508      	RET
                 
                 __MULW12:
001ab5 d01c      	RCALL __CHKSIGNW
001ab6 dff6      	RCALL __MULW12U
001ab7 f40e      	BRTC __MULW121
001ab8 dfeb      	RCALL __ANEGW1
                 __MULW121:
001ab9 9508      	RET
                 
                 __DIVW21U:
001aba 2400      	CLR  R0
001abb 2411      	CLR  R1
001abc e190      	LDI  R25,16
                 __DIVW21U1:
001abd 0faa      	LSL  R26
001abe 1fbb      	ROL  R27
001abf 1c00      	ROL  R0
001ac0 1c11      	ROL  R1
001ac1 1a0e      	SUB  R0,R30
001ac2 0a1f      	SBC  R1,R31
001ac3 f418      	BRCC __DIVW21U2
001ac4 0e0e      	ADD  R0,R30
001ac5 1e1f      	ADC  R1,R31
001ac6 c001      	RJMP __DIVW21U3
                 __DIVW21U2:
001ac7 60a1      	SBR  R26,1
                 __DIVW21U3:
001ac8 959a      	DEC  R25
001ac9 f799      	BRNE __DIVW21U1
001aca 01fd      	MOVW R30,R26
001acb 01d0      	MOVW R26,R0
001acc 9508      	RET
                 
                 __DIVW21:
001acd d004      	RCALL __CHKSIGNW
001ace dfeb      	RCALL __DIVW21U
001acf f40e      	BRTC __DIVW211
001ad0 dfd3      	RCALL __ANEGW1
                 __DIVW211:
001ad1 9508      	RET
                 
                 __CHKSIGNW:
001ad2 94e8      	CLT
001ad3 fff7      	SBRS R31,7
001ad4 c002      	RJMP __CHKSW1
001ad5 dfce      	RCALL __ANEGW1
001ad6 9468      	SET
                 __CHKSW1:
001ad7 ffb7      	SBRS R27,7
001ad8 c006      	RJMP __CHKSW2
001ad9 95a0      	COM  R26
001ada 95b0      	COM  R27
001adb 9611      	ADIW R26,1
001adc f800      	BLD  R0,0
001add 9403      	INC  R0
001ade fa00      	BST  R0,0
                 __CHKSW2:
001adf 9508      	RET
                 
                 __GETW1P:
001ae0 91ed      	LD   R30,X+
001ae1 91fc      	LD   R31,X
001ae2 9711      	SBIW R26,1
001ae3 9508      	RET
                 
                 __GETW1PF:
001ae4 9005      	LPM  R0,Z+
001ae5 91f4      	LPM  R31,Z
001ae6 2de0      	MOV  R30,R0
001ae7 9508      	RET
                 
                 __PUTPARD1:
001ae8 937a      	ST   -Y,R23
001ae9 936a      	ST   -Y,R22
001aea 93fa      	ST   -Y,R31
001aeb 93ea      	ST   -Y,R30
001aec 9508      	RET
                 
                 __SWAPW12:
001aed 2e1b      	MOV  R1,R27
001aee 2fbf      	MOV  R27,R31
001aef 2df1      	MOV  R31,R1
                 
                 __SWAPB12:
001af0 2e1a      	MOV  R1,R26
001af1 2fae      	MOV  R26,R30
001af2 2de1      	MOV  R30,R1
001af3 9508      	RET
                 
                 __EEPROMRDB:
001af4 99e1      	SBIC EECR,EEWE
001af5 cffe      	RJMP __EEPROMRDB
001af6 93ff      	PUSH R31
001af7 b7ff      	IN   R31,SREG
001af8 94f8      	CLI
001af9 bbae      	OUT  EEARL,R26
001afa bbbf      	OUT  EEARH,R27
001afb 9ae0      	SBI  EECR,EERE
001afc b3ed      	IN   R30,EEDR
001afd bfff      	OUT  SREG,R31
001afe 91ff      	POP  R31
001aff 9508      	RET
                 
                 __EEPROMWRB:
001b00 9be1      	SBIS EECR,EEWE
001b01 c002      	RJMP __EEPROMWRB1
001b02 95a8      	WDR
001b03 cffc      	RJMP __EEPROMWRB
                 __EEPROMWRB1:
001b04 b79f      	IN   R25,SREG
001b05 94f8      	CLI
001b06 bbae      	OUT  EEARL,R26
001b07 bbbf      	OUT  EEARH,R27
001b08 9ae0      	SBI  EECR,EERE
001b09 b38d      	IN   R24,EEDR
001b0a 17e8      	CP   R30,R24
001b0b f019      	BREQ __EEPROMWRB0
001b0c bbed      	OUT  EEDR,R30
001b0d 9ae2      	SBI  EECR,EEMWE
001b0e 9ae1      	SBI  EECR,EEWE
                 __EEPROMWRB0:
001b0f bf9f      	OUT  SREG,R25
001b10 9508      	RET
                 
                 __CPW02:
001b11 2400      	CLR  R0
001b12 160a      	CP   R0,R26
001b13 060b      	CPC  R0,R27
001b14 9508      	RET
                 
                 __SAVELOCR6:
001b15 935a      	ST   -Y,R21
                 __SAVELOCR5:
001b16 934a      	ST   -Y,R20
                 __SAVELOCR4:
001b17 933a      	ST   -Y,R19
                 __SAVELOCR3:
001b18 932a      	ST   -Y,R18
                 __SAVELOCR2:
001b19 931a      	ST   -Y,R17
001b1a 930a      	ST   -Y,R16
001b1b 9508      	RET
                 
                 __LOADLOCR6:
001b1c 815d      	LDD  R21,Y+5
                 __LOADLOCR5:
001b1d 814c      	LDD  R20,Y+4
                 __LOADLOCR4:
001b1e 813b      	LDD  R19,Y+3
                 __LOADLOCR3:
001b1f 812a      	LDD  R18,Y+2
                 __LOADLOCR2:
001b20 8119      	LDD  R17,Y+1
001b21 8108      	LD   R16,Y
001b22 9508      	RET
                 
                 ;END OF CODE MARKER
                 __END_OF_CODE:


RESOURCE USE INFORMATION
------------------------

Notice:
The register and instruction counts are symbol table hit counts,
and hence implicitly used resources are not counted, eg, the
'lpm' instruction without operands implicitly uses r0 and z,
none of which are counted.

x,y,z are separate entities in the symbol table and are
counted separately from r26..r31 here.

.dseg memory usage only counts static data declared with .byte

ATmega32 register use summary:
r0 :  96 r1 :  11 r2 :  19 r3 :   0 r4 :   7 r5 :   3 r6 :   7 r7 :   3 
r8 :  20 r9 :  10 r10:   8 r11:   5 r12:  15 r13:   5 r14:   0 r15:   4 
r16: 150 r17: 116 r18:  61 r19:  30 r20:   9 r21:  25 r22:  19 r23:   6 
r24:  34 r25:  12 r26: 601 r27: 199 r28:  22 r29:   1 r30:1283 r31: 534 
x  :  54 y  : 370 z  :  43 
Registers used: 33 out of 35 (94.3%)

ATmega32 instruction use summary:
.lds  :   0 .lds.l:   0 .sts  :   0 .sts.l:   0 adc   :  24 add   :  30 
adiw  :  50 and   :   0 andi  :   8 asr   :   0 bclr  :   0 bld   :  13 
brbc  :   0 brbs  :   0 brcc  :   1 brcs  :   0 break :   0 breq  :  52 
brge  :  32 brhc  :   0 brhs  :   0 brid  :   0 brie  :   0 brlo  :  37 
brlt  :  16 brmi  :   3 brne  : 201 brpl  :   7 brsh  :  40 brtc  :   2 
brts  :   0 brvc  :   0 brvs  :   0 bset  :   0 bst   :   1 call  : 937 
cbi   :  39 cbr   :   0 clc   :   0 clh   :   0 cli   :   3 cln   :   0 
clr   :  32 cls   :   0 clt   :   7 clv   :   0 clz   :   0 com   :   2 
cp    :  64 cpc   : 135 cpi   : 183 cpse  :   0 dec   :   6 des   :   0 
eor   :   0 fmul  :   0 fmuls :   0 fmulsu:   0 icall :   2 ijmp  :   0 
in    :   6 inc   :   1 jmp   :  45 ld    :  84 ldd   : 103 ldi   : 899 
lds   : 177 lpm   :  16 lsl   :   1 lsr   :   0 mov   :  36 movw  : 138 
mul   :   4 muls  :   0 mulsu :   0 neg   :   2 nop   :   0 or    :   5 
ori   :   7 out   :  40 pop   :   2 push  :   2 rcall :  62 ret   : 120 
reti  :   1 rjmp  : 416 rol   :   3 ror   :   0 sbc   :  11 sbci  : 101 
sbi   :  57 sbic  :  87 sbis  :  55 sbiw  :  85 sbr   :   1 sbrc  :   3 
sbrs  :  18 sec   :   0 seh   :   0 sei   :   1 sen   :   0 ser   :   0 
ses   :   0 set   :   7 sev   :   0 sez   :   0 sleep :   0 spm   :   0 
st    : 215 std   :  52 sts   : 145 sub   :  10 subi  : 133 swap  :   1 
tst   :  12 wdr   :   2 
Instructions used: 69 out of 116 (59.5%)

ATmega32 memory use summary [bytes]:
Segment   Begin    End      Code   Data   Used    Size   Use%
---------------------------------------------------------------
[.cseg] 0x000000 0x003646  12788   1106  13894   32768  42.4%
[.dseg] 0x000060 0x0005ec      0    908    908    2143  42.4%
[.eseg] 0x000000 0x0002a1      0    673    673    1024  65.7%

Assembly complete, 0 errors, 6 warnings
